
convCS.elf:     file format elf32-littlearm

Sections:
Idx Name          Size      VMA       LMA       File off  Algn
  0 .isr_vector   000001d8  08000000  08000000  00001000  2**0
                  CONTENTS, ALLOC, LOAD, READONLY, DATA
  1 .text         000049f8  080001d8  080001d8  000011d8  2**2
                  CONTENTS, ALLOC, LOAD, READONLY, CODE
  2 .rodata       00000058  08004bd0  08004bd0  00005bd0  2**1
                  CONTENTS, ALLOC, LOAD, READONLY, DATA
  3 .ARM.extab    00000000  08004c28  08004c28  0000601c  2**0
                  CONTENTS, READONLY
  4 .ARM          00000008  08004c28  08004c28  00005c28  2**2
                  CONTENTS, ALLOC, LOAD, READONLY, DATA
  5 .preinit_array 00000000  08004c30  08004c30  0000601c  2**0
                  CONTENTS, ALLOC, LOAD, DATA
  6 .init_array   00000004  08004c30  08004c30  00005c30  2**2
                  CONTENTS, ALLOC, LOAD, READONLY, DATA
  7 .fini_array   00000004  08004c34  08004c34  00005c34  2**2
                  CONTENTS, ALLOC, LOAD, READONLY, DATA
  8 .data         0000001c  20000000  08004c38  00006000  2**2
                  CONTENTS, ALLOC, LOAD, DATA
  9 .bss          000002c0  2000001c  08004c54  0000601c  2**2
                  ALLOC
 10 ._user_heap_stack 00000604  200002dc  08004c54  000062dc  2**0
                  ALLOC
 11 .ARM.attributes 00000030  00000000  00000000  0000601c  2**0
                  CONTENTS, READONLY
 12 .comment      00000043  00000000  00000000  0000604c  2**0
                  CONTENTS, READONLY
 13 .debug_frame  000000ac  00000000  00000000  00006090  2**2
                  CONTENTS, READONLY, DEBUGGING, OCTETS

Disassembly of section .text:

080001d8 <__do_global_dtors_aux>:
 80001d8:	b510      	push	{r4, lr}
 80001da:	4c05      	ldr	r4, [pc, #20]	@ (80001f0 <__do_global_dtors_aux+0x18>)
 80001dc:	7823      	ldrb	r3, [r4, #0]
 80001de:	b933      	cbnz	r3, 80001ee <__do_global_dtors_aux+0x16>
 80001e0:	4b04      	ldr	r3, [pc, #16]	@ (80001f4 <__do_global_dtors_aux+0x1c>)
 80001e2:	b113      	cbz	r3, 80001ea <__do_global_dtors_aux+0x12>
 80001e4:	4804      	ldr	r0, [pc, #16]	@ (80001f8 <__do_global_dtors_aux+0x20>)
 80001e6:	f3af 8000 	nop.w
 80001ea:	2301      	movs	r3, #1
 80001ec:	7023      	strb	r3, [r4, #0]
 80001ee:	bd10      	pop	{r4, pc}
 80001f0:	2000001c 	.word	0x2000001c
 80001f4:	00000000 	.word	0x00000000
 80001f8:	08004bb8 	.word	0x08004bb8

080001fc <frame_dummy>:
 80001fc:	b508      	push	{r3, lr}
 80001fe:	4b03      	ldr	r3, [pc, #12]	@ (800020c <frame_dummy+0x10>)
 8000200:	b11b      	cbz	r3, 800020a <frame_dummy+0xe>
 8000202:	4903      	ldr	r1, [pc, #12]	@ (8000210 <frame_dummy+0x14>)
 8000204:	4803      	ldr	r0, [pc, #12]	@ (8000214 <frame_dummy+0x18>)
 8000206:	f3af 8000 	nop.w
 800020a:	bd08      	pop	{r3, pc}
 800020c:	00000000 	.word	0x00000000
 8000210:	20000020 	.word	0x20000020
 8000214:	08004bb8 	.word	0x08004bb8

08000218 <__aeabi_uldivmod>:
 8000218:	b953      	cbnz	r3, 8000230 <__aeabi_uldivmod+0x18>
 800021a:	b94a      	cbnz	r2, 8000230 <__aeabi_uldivmod+0x18>
 800021c:	2900      	cmp	r1, #0
 800021e:	bf08      	it	eq
 8000220:	2800      	cmpeq	r0, #0
 8000222:	bf1c      	itt	ne
 8000224:	f04f 31ff 	movne.w	r1, #4294967295
 8000228:	f04f 30ff 	movne.w	r0, #4294967295
 800022c:	f000 b988 	b.w	8000540 <__aeabi_idiv0>
 8000230:	f1ad 0c08 	sub.w	ip, sp, #8
 8000234:	e96d ce04 	strd	ip, lr, [sp, #-16]!
 8000238:	f000 f806 	bl	8000248 <__udivmoddi4>
 800023c:	f8dd e004 	ldr.w	lr, [sp, #4]
 8000240:	e9dd 2302 	ldrd	r2, r3, [sp, #8]
 8000244:	b004      	add	sp, #16
 8000246:	4770      	bx	lr

08000248 <__udivmoddi4>:
 8000248:	e92d 47f0 	stmdb	sp!, {r4, r5, r6, r7, r8, r9, sl, lr}
 800024c:	9d08      	ldr	r5, [sp, #32]
 800024e:	468e      	mov	lr, r1
 8000250:	4604      	mov	r4, r0
 8000252:	4688      	mov	r8, r1
 8000254:	2b00      	cmp	r3, #0
 8000256:	d14a      	bne.n	80002ee <__udivmoddi4+0xa6>
 8000258:	428a      	cmp	r2, r1
 800025a:	4617      	mov	r7, r2
 800025c:	d962      	bls.n	8000324 <__udivmoddi4+0xdc>
 800025e:	fab2 f682 	clz	r6, r2
 8000262:	b14e      	cbz	r6, 8000278 <__udivmoddi4+0x30>
 8000264:	f1c6 0320 	rsb	r3, r6, #32
 8000268:	fa01 f806 	lsl.w	r8, r1, r6
 800026c:	fa20 f303 	lsr.w	r3, r0, r3
 8000270:	40b7      	lsls	r7, r6
 8000272:	ea43 0808 	orr.w	r8, r3, r8
 8000276:	40b4      	lsls	r4, r6
 8000278:	ea4f 4e17 	mov.w	lr, r7, lsr #16
 800027c:	fa1f fc87 	uxth.w	ip, r7
 8000280:	fbb8 f1fe 	udiv	r1, r8, lr
 8000284:	0c23      	lsrs	r3, r4, #16
 8000286:	fb0e 8811 	mls	r8, lr, r1, r8
 800028a:	ea43 4308 	orr.w	r3, r3, r8, lsl #16
 800028e:	fb01 f20c 	mul.w	r2, r1, ip
 8000292:	429a      	cmp	r2, r3
 8000294:	d909      	bls.n	80002aa <__udivmoddi4+0x62>
 8000296:	18fb      	adds	r3, r7, r3
 8000298:	f101 30ff 	add.w	r0, r1, #4294967295
 800029c:	f080 80ea 	bcs.w	8000474 <__udivmoddi4+0x22c>
 80002a0:	429a      	cmp	r2, r3
 80002a2:	f240 80e7 	bls.w	8000474 <__udivmoddi4+0x22c>
 80002a6:	3902      	subs	r1, #2
 80002a8:	443b      	add	r3, r7
 80002aa:	1a9a      	subs	r2, r3, r2
 80002ac:	b2a3      	uxth	r3, r4
 80002ae:	fbb2 f0fe 	udiv	r0, r2, lr
 80002b2:	fb0e 2210 	mls	r2, lr, r0, r2
 80002b6:	ea43 4302 	orr.w	r3, r3, r2, lsl #16
 80002ba:	fb00 fc0c 	mul.w	ip, r0, ip
 80002be:	459c      	cmp	ip, r3
 80002c0:	d909      	bls.n	80002d6 <__udivmoddi4+0x8e>
 80002c2:	18fb      	adds	r3, r7, r3
 80002c4:	f100 32ff 	add.w	r2, r0, #4294967295
 80002c8:	f080 80d6 	bcs.w	8000478 <__udivmoddi4+0x230>
 80002cc:	459c      	cmp	ip, r3
 80002ce:	f240 80d3 	bls.w	8000478 <__udivmoddi4+0x230>
 80002d2:	443b      	add	r3, r7
 80002d4:	3802      	subs	r0, #2
 80002d6:	ea40 4001 	orr.w	r0, r0, r1, lsl #16
 80002da:	eba3 030c 	sub.w	r3, r3, ip
 80002de:	2100      	movs	r1, #0
 80002e0:	b11d      	cbz	r5, 80002ea <__udivmoddi4+0xa2>
 80002e2:	40f3      	lsrs	r3, r6
 80002e4:	2200      	movs	r2, #0
 80002e6:	e9c5 3200 	strd	r3, r2, [r5]
 80002ea:	e8bd 87f0 	ldmia.w	sp!, {r4, r5, r6, r7, r8, r9, sl, pc}
 80002ee:	428b      	cmp	r3, r1
 80002f0:	d905      	bls.n	80002fe <__udivmoddi4+0xb6>
 80002f2:	b10d      	cbz	r5, 80002f8 <__udivmoddi4+0xb0>
 80002f4:	e9c5 0100 	strd	r0, r1, [r5]
 80002f8:	2100      	movs	r1, #0
 80002fa:	4608      	mov	r0, r1
 80002fc:	e7f5      	b.n	80002ea <__udivmoddi4+0xa2>
 80002fe:	fab3 f183 	clz	r1, r3
 8000302:	2900      	cmp	r1, #0
 8000304:	d146      	bne.n	8000394 <__udivmoddi4+0x14c>
 8000306:	4573      	cmp	r3, lr
 8000308:	d302      	bcc.n	8000310 <__udivmoddi4+0xc8>
 800030a:	4282      	cmp	r2, r0
 800030c:	f200 8105 	bhi.w	800051a <__udivmoddi4+0x2d2>
 8000310:	1a84      	subs	r4, r0, r2
 8000312:	eb6e 0203 	sbc.w	r2, lr, r3
 8000316:	2001      	movs	r0, #1
 8000318:	4690      	mov	r8, r2
 800031a:	2d00      	cmp	r5, #0
 800031c:	d0e5      	beq.n	80002ea <__udivmoddi4+0xa2>
 800031e:	e9c5 4800 	strd	r4, r8, [r5]
 8000322:	e7e2      	b.n	80002ea <__udivmoddi4+0xa2>
 8000324:	2a00      	cmp	r2, #0
 8000326:	f000 8090 	beq.w	800044a <__udivmoddi4+0x202>
 800032a:	fab2 f682 	clz	r6, r2
 800032e:	2e00      	cmp	r6, #0
 8000330:	f040 80a4 	bne.w	800047c <__udivmoddi4+0x234>
 8000334:	1a8a      	subs	r2, r1, r2
 8000336:	0c03      	lsrs	r3, r0, #16
 8000338:	ea4f 4e17 	mov.w	lr, r7, lsr #16
 800033c:	b280      	uxth	r0, r0
 800033e:	b2bc      	uxth	r4, r7
 8000340:	2101      	movs	r1, #1
 8000342:	fbb2 fcfe 	udiv	ip, r2, lr
 8000346:	fb0e 221c 	mls	r2, lr, ip, r2
 800034a:	ea43 4302 	orr.w	r3, r3, r2, lsl #16
 800034e:	fb04 f20c 	mul.w	r2, r4, ip
 8000352:	429a      	cmp	r2, r3
 8000354:	d907      	bls.n	8000366 <__udivmoddi4+0x11e>
 8000356:	18fb      	adds	r3, r7, r3
 8000358:	f10c 38ff 	add.w	r8, ip, #4294967295
 800035c:	d202      	bcs.n	8000364 <__udivmoddi4+0x11c>
 800035e:	429a      	cmp	r2, r3
 8000360:	f200 80e0 	bhi.w	8000524 <__udivmoddi4+0x2dc>
 8000364:	46c4      	mov	ip, r8
 8000366:	1a9b      	subs	r3, r3, r2
 8000368:	fbb3 f2fe 	udiv	r2, r3, lr
 800036c:	fb0e 3312 	mls	r3, lr, r2, r3
 8000370:	ea40 4303 	orr.w	r3, r0, r3, lsl #16
 8000374:	fb02 f404 	mul.w	r4, r2, r4
 8000378:	429c      	cmp	r4, r3
 800037a:	d907      	bls.n	800038c <__udivmoddi4+0x144>
 800037c:	18fb      	adds	r3, r7, r3
 800037e:	f102 30ff 	add.w	r0, r2, #4294967295
 8000382:	d202      	bcs.n	800038a <__udivmoddi4+0x142>
 8000384:	429c      	cmp	r4, r3
 8000386:	f200 80ca 	bhi.w	800051e <__udivmoddi4+0x2d6>
 800038a:	4602      	mov	r2, r0
 800038c:	1b1b      	subs	r3, r3, r4
 800038e:	ea42 400c 	orr.w	r0, r2, ip, lsl #16
 8000392:	e7a5      	b.n	80002e0 <__udivmoddi4+0x98>
 8000394:	f1c1 0620 	rsb	r6, r1, #32
 8000398:	408b      	lsls	r3, r1
 800039a:	fa22 f706 	lsr.w	r7, r2, r6
 800039e:	431f      	orrs	r7, r3
 80003a0:	fa0e f401 	lsl.w	r4, lr, r1
 80003a4:	fa20 f306 	lsr.w	r3, r0, r6
 80003a8:	fa2e fe06 	lsr.w	lr, lr, r6
 80003ac:	ea4f 4917 	mov.w	r9, r7, lsr #16
 80003b0:	4323      	orrs	r3, r4
 80003b2:	fa00 f801 	lsl.w	r8, r0, r1
 80003b6:	fa1f fc87 	uxth.w	ip, r7
 80003ba:	fbbe f0f9 	udiv	r0, lr, r9
 80003be:	0c1c      	lsrs	r4, r3, #16
 80003c0:	fb09 ee10 	mls	lr, r9, r0, lr
 80003c4:	ea44 440e 	orr.w	r4, r4, lr, lsl #16
 80003c8:	fb00 fe0c 	mul.w	lr, r0, ip
 80003cc:	45a6      	cmp	lr, r4
 80003ce:	fa02 f201 	lsl.w	r2, r2, r1
 80003d2:	d909      	bls.n	80003e8 <__udivmoddi4+0x1a0>
 80003d4:	193c      	adds	r4, r7, r4
 80003d6:	f100 3aff 	add.w	sl, r0, #4294967295
 80003da:	f080 809c 	bcs.w	8000516 <__udivmoddi4+0x2ce>
 80003de:	45a6      	cmp	lr, r4
 80003e0:	f240 8099 	bls.w	8000516 <__udivmoddi4+0x2ce>
 80003e4:	3802      	subs	r0, #2
 80003e6:	443c      	add	r4, r7
 80003e8:	eba4 040e 	sub.w	r4, r4, lr
 80003ec:	fa1f fe83 	uxth.w	lr, r3
 80003f0:	fbb4 f3f9 	udiv	r3, r4, r9
 80003f4:	fb09 4413 	mls	r4, r9, r3, r4
 80003f8:	ea4e 4404 	orr.w	r4, lr, r4, lsl #16
 80003fc:	fb03 fc0c 	mul.w	ip, r3, ip
 8000400:	45a4      	cmp	ip, r4
 8000402:	d908      	bls.n	8000416 <__udivmoddi4+0x1ce>
 8000404:	193c      	adds	r4, r7, r4
 8000406:	f103 3eff 	add.w	lr, r3, #4294967295
 800040a:	f080 8082 	bcs.w	8000512 <__udivmoddi4+0x2ca>
 800040e:	45a4      	cmp	ip, r4
 8000410:	d97f      	bls.n	8000512 <__udivmoddi4+0x2ca>
 8000412:	3b02      	subs	r3, #2
 8000414:	443c      	add	r4, r7
 8000416:	ea43 4000 	orr.w	r0, r3, r0, lsl #16
 800041a:	eba4 040c 	sub.w	r4, r4, ip
 800041e:	fba0 ec02 	umull	lr, ip, r0, r2
 8000422:	4564      	cmp	r4, ip
 8000424:	4673      	mov	r3, lr
 8000426:	46e1      	mov	r9, ip
 8000428:	d362      	bcc.n	80004f0 <__udivmoddi4+0x2a8>
 800042a:	d05f      	beq.n	80004ec <__udivmoddi4+0x2a4>
 800042c:	b15d      	cbz	r5, 8000446 <__udivmoddi4+0x1fe>
 800042e:	ebb8 0203 	subs.w	r2, r8, r3
 8000432:	eb64 0409 	sbc.w	r4, r4, r9
 8000436:	fa04 f606 	lsl.w	r6, r4, r6
 800043a:	fa22 f301 	lsr.w	r3, r2, r1
 800043e:	431e      	orrs	r6, r3
 8000440:	40cc      	lsrs	r4, r1
 8000442:	e9c5 6400 	strd	r6, r4, [r5]
 8000446:	2100      	movs	r1, #0
 8000448:	e74f      	b.n	80002ea <__udivmoddi4+0xa2>
 800044a:	fbb1 fcf2 	udiv	ip, r1, r2
 800044e:	0c01      	lsrs	r1, r0, #16
 8000450:	ea41 410e 	orr.w	r1, r1, lr, lsl #16
 8000454:	b280      	uxth	r0, r0
 8000456:	ea40 4201 	orr.w	r2, r0, r1, lsl #16
 800045a:	463b      	mov	r3, r7
 800045c:	4638      	mov	r0, r7
 800045e:	463c      	mov	r4, r7
 8000460:	46b8      	mov	r8, r7
 8000462:	46be      	mov	lr, r7
 8000464:	2620      	movs	r6, #32
 8000466:	fbb1 f1f7 	udiv	r1, r1, r7
 800046a:	eba2 0208 	sub.w	r2, r2, r8
 800046e:	ea41 410c 	orr.w	r1, r1, ip, lsl #16
 8000472:	e766      	b.n	8000342 <__udivmoddi4+0xfa>
 8000474:	4601      	mov	r1, r0
 8000476:	e718      	b.n	80002aa <__udivmoddi4+0x62>
 8000478:	4610      	mov	r0, r2
 800047a:	e72c      	b.n	80002d6 <__udivmoddi4+0x8e>
 800047c:	f1c6 0220 	rsb	r2, r6, #32
 8000480:	fa2e f302 	lsr.w	r3, lr, r2
 8000484:	40b7      	lsls	r7, r6
 8000486:	40b1      	lsls	r1, r6
 8000488:	fa20 f202 	lsr.w	r2, r0, r2
 800048c:	ea4f 4e17 	mov.w	lr, r7, lsr #16
 8000490:	430a      	orrs	r2, r1
 8000492:	fbb3 f8fe 	udiv	r8, r3, lr
 8000496:	b2bc      	uxth	r4, r7
 8000498:	fb0e 3318 	mls	r3, lr, r8, r3
 800049c:	0c11      	lsrs	r1, r2, #16
 800049e:	ea41 4103 	orr.w	r1, r1, r3, lsl #16
 80004a2:	fb08 f904 	mul.w	r9, r8, r4
 80004a6:	40b0      	lsls	r0, r6
 80004a8:	4589      	cmp	r9, r1
 80004aa:	ea4f 4310 	mov.w	r3, r0, lsr #16
 80004ae:	b280      	uxth	r0, r0
 80004b0:	d93e      	bls.n	8000530 <__udivmoddi4+0x2e8>
 80004b2:	1879      	adds	r1, r7, r1
 80004b4:	f108 3cff 	add.w	ip, r8, #4294967295
 80004b8:	d201      	bcs.n	80004be <__udivmoddi4+0x276>
 80004ba:	4589      	cmp	r9, r1
 80004bc:	d81f      	bhi.n	80004fe <__udivmoddi4+0x2b6>
 80004be:	eba1 0109 	sub.w	r1, r1, r9
 80004c2:	fbb1 f9fe 	udiv	r9, r1, lr
 80004c6:	fb09 f804 	mul.w	r8, r9, r4
 80004ca:	fb0e 1119 	mls	r1, lr, r9, r1
 80004ce:	b292      	uxth	r2, r2
 80004d0:	ea42 4201 	orr.w	r2, r2, r1, lsl #16
 80004d4:	4542      	cmp	r2, r8
 80004d6:	d229      	bcs.n	800052c <__udivmoddi4+0x2e4>
 80004d8:	18ba      	adds	r2, r7, r2
 80004da:	f109 31ff 	add.w	r1, r9, #4294967295
 80004de:	d2c4      	bcs.n	800046a <__udivmoddi4+0x222>
 80004e0:	4542      	cmp	r2, r8
 80004e2:	d2c2      	bcs.n	800046a <__udivmoddi4+0x222>
 80004e4:	f1a9 0102 	sub.w	r1, r9, #2
 80004e8:	443a      	add	r2, r7
 80004ea:	e7be      	b.n	800046a <__udivmoddi4+0x222>
 80004ec:	45f0      	cmp	r8, lr
 80004ee:	d29d      	bcs.n	800042c <__udivmoddi4+0x1e4>
 80004f0:	ebbe 0302 	subs.w	r3, lr, r2
 80004f4:	eb6c 0c07 	sbc.w	ip, ip, r7
 80004f8:	3801      	subs	r0, #1
 80004fa:	46e1      	mov	r9, ip
 80004fc:	e796      	b.n	800042c <__udivmoddi4+0x1e4>
 80004fe:	eba7 0909 	sub.w	r9, r7, r9
 8000502:	4449      	add	r1, r9
 8000504:	f1a8 0c02 	sub.w	ip, r8, #2
 8000508:	fbb1 f9fe 	udiv	r9, r1, lr
 800050c:	fb09 f804 	mul.w	r8, r9, r4
 8000510:	e7db      	b.n	80004ca <__udivmoddi4+0x282>
 8000512:	4673      	mov	r3, lr
 8000514:	e77f      	b.n	8000416 <__udivmoddi4+0x1ce>
 8000516:	4650      	mov	r0, sl
 8000518:	e766      	b.n	80003e8 <__udivmoddi4+0x1a0>
 800051a:	4608      	mov	r0, r1
 800051c:	e6fd      	b.n	800031a <__udivmoddi4+0xd2>
 800051e:	443b      	add	r3, r7
 8000520:	3a02      	subs	r2, #2
 8000522:	e733      	b.n	800038c <__udivmoddi4+0x144>
 8000524:	f1ac 0c02 	sub.w	ip, ip, #2
 8000528:	443b      	add	r3, r7
 800052a:	e71c      	b.n	8000366 <__udivmoddi4+0x11e>
 800052c:	4649      	mov	r1, r9
 800052e:	e79c      	b.n	800046a <__udivmoddi4+0x222>
 8000530:	eba1 0109 	sub.w	r1, r1, r9
 8000534:	46c4      	mov	ip, r8
 8000536:	fbb1 f9fe 	udiv	r9, r1, lr
 800053a:	fb09 f804 	mul.w	r8, r9, r4
 800053e:	e7c4      	b.n	80004ca <__udivmoddi4+0x282>

08000540 <__aeabi_idiv0>:
 8000540:	4770      	bx	lr
 8000542:	bf00      	nop

08000544 <canPublishTelemetry>:
 8000544:	b500      	push	{lr}
 8000546:	b08d      	sub	sp, #52	@ 0x34
 8000548:	6913      	ldr	r3, [r2, #16]
 800054a:	f88d 0004 	strb.w	r0, [sp, #4]
 800054e:	f88d 1005 	strb.w	r1, [sp, #5]
 8000552:	2064      	movs	r0, #100	@ 0x64
 8000554:	fb93 f1f0 	sdiv	r1, r3, r0
 8000558:	6893      	ldr	r3, [r2, #8]
 800055a:	68d2      	ldr	r2, [r2, #12]
 800055c:	fb93 f3f0 	sdiv	r3, r3, r0
 8000560:	fb92 f2f0 	sdiv	r2, r2, r0
 8000564:	f8ad 300a 	strh.w	r3, [sp, #10]
 8000568:	f8ad 2006 	strh.w	r2, [sp, #6]
 800056c:	2300      	movs	r3, #0
 800056e:	f240 1223 	movw	r2, #291	@ 0x123
 8000572:	e9cd 2303 	strd	r2, r3, [sp, #12]
 8000576:	2208      	movs	r2, #8
 8000578:	e9cd 2306 	strd	r2, r3, [sp, #24]
 800057c:	e9cd 3308 	strd	r3, r3, [sp, #32]
 8000580:	9305      	str	r3, [sp, #20]
 8000582:	930a      	str	r3, [sp, #40]	@ 0x28
 8000584:	4b07      	ldr	r3, [pc, #28]	@ (80005a4 <canPublishTelemetry+0x60>)
 8000586:	f8ad 1008 	strh.w	r1, [sp, #8]
 800058a:	781b      	ldrb	r3, [r3, #0]
 800058c:	aa01      	add	r2, sp, #4
 800058e:	a903      	add	r1, sp, #12
 8000590:	b12b      	cbz	r3, 800059e <canPublishTelemetry+0x5a>
 8000592:	4805      	ldr	r0, [pc, #20]	@ (80005a8 <canPublishTelemetry+0x64>)
 8000594:	f002 f91a 	bl	80027cc <HAL_FDCAN_AddMessageToTxFifoQ>
 8000598:	b00d      	add	sp, #52	@ 0x34
 800059a:	f85d fb04 	ldr.w	pc, [sp], #4
 800059e:	4803      	ldr	r0, [pc, #12]	@ (80005ac <canPublishTelemetry+0x68>)
 80005a0:	e7f8      	b.n	8000594 <canPublishTelemetry+0x50>
 80005a2:	bf00      	nop
 80005a4:	20000000 	.word	0x20000000
 80005a8:	200001ec 	.word	0x200001ec
 80005ac:	20000188 	.word	0x20000188

080005b0 <canReceiveHandler>:
 80005b0:	b500      	push	{lr}
 80005b2:	b08d      	sub	sp, #52	@ 0x34
 80005b4:	466b      	mov	r3, sp
 80005b6:	aa02      	add	r2, sp, #8
 80005b8:	2140      	movs	r1, #64	@ 0x40
 80005ba:	f002 f96b 	bl	8002894 <HAL_FDCAN_GetRxMessage>
 80005be:	b980      	cbnz	r0, 80005e2 <canReceiveHandler+0x32>
 80005c0:	4b09      	ldr	r3, [pc, #36]	@ (80005e8 <canReceiveHandler+0x38>)
 80005c2:	f89d 2000 	ldrb.w	r2, [sp]
 80005c6:	701a      	strb	r2, [r3, #0]
 80005c8:	f9bd 3001 	ldrsh.w	r3, [sp, #1]
 80005cc:	ed9f 7a07 	vldr	s14, [pc, #28]	@ 80005ec <canReceiveHandler+0x3c>
 80005d0:	ee07 3a90 	vmov	s15, r3
 80005d4:	eef8 7ae7 	vcvt.f32.s32	s15, s15
 80005d8:	4b05      	ldr	r3, [pc, #20]	@ (80005f0 <canReceiveHandler+0x40>)
 80005da:	ee67 7a87 	vmul.f32	s15, s15, s14
 80005de:	edc3 7a00 	vstr	s15, [r3]
 80005e2:	b00d      	add	sp, #52	@ 0x34
 80005e4:	f85d fb04 	ldr.w	pc, [sp], #4
 80005e8:	20000038 	.word	0x20000038
 80005ec:	42c80000 	.word	0x42c80000
 80005f0:	2000003c 	.word	0x2000003c

080005f4 <HAL_FDCAN_RxFifo0Callback>:
 80005f4:	f7ff bfdc 	b.w	80005b0 <canReceiveHandler>

080005f8 <ConverterGetState>:
 80005f8:	4b01      	ldr	r3, [pc, #4]	@ (8000600 <ConverterGetState+0x8>)
 80005fa:	7818      	ldrb	r0, [r3, #0]
 80005fc:	4770      	bx	lr
 80005fe:	bf00      	nop
 8000600:	20000008 	.word	0x20000008

08000604 <converterProcess>:
 8000604:	b5f7      	push	{r0, r1, r2, r4, r5, r6, r7, lr}
 8000606:	4604      	mov	r4, r0
 8000608:	f000 fc0c 	bl	8000e24 <sensorRead>
 800060c:	f000 fc68 	bl	8000ee0 <sensorGetValues>
 8000610:	4d23      	ldr	r5, [pc, #140]	@ (80006a0 <converterProcess+0x9c>)
 8000612:	2300      	movs	r3, #0
 8000614:	a901      	add	r1, sp, #4
 8000616:	9301      	str	r3, [sp, #4]
 8000618:	4606      	mov	r6, r0
 800061a:	f000 f84b 	bl	80006b4 <diagCheck>
 800061e:	682b      	ldr	r3, [r5, #0]
 8000620:	429c      	cmp	r4, r3
 8000622:	4607      	mov	r7, r0
 8000624:	d003      	beq.n	800062e <converterProcess+0x2a>
 8000626:	481f      	ldr	r0, [pc, #124]	@ (80006a4 <converterProcess+0xa0>)
 8000628:	f000 fb81 	bl	8000d2e <piReset>
 800062c:	602c      	str	r4, [r5, #0]
 800062e:	4621      	mov	r1, r4
 8000630:	4638      	mov	r0, r7
 8000632:	f000 fbdf 	bl	8000df4 <pwmHandlerProcess>
 8000636:	2c03      	cmp	r4, #3
 8000638:	4d1b      	ldr	r5, [pc, #108]	@ (80006a8 <converterProcess+0xa4>)
 800063a:	d119      	bne.n	8000670 <converterProcess+0x6c>
 800063c:	edd6 7a04 	vldr	s15, [r6, #16]
 8000640:	ed9f 0a1a 	vldr	s0, [pc, #104]	@ 80006ac <converterProcess+0xa8>
 8000644:	eef8 0ae7 	vcvt.f32.s32	s1, s15
 8000648:	4816      	ldr	r0, [pc, #88]	@ (80006a4 <converterProcess+0xa0>)
 800064a:	f000 fb31 	bl	8000cb0 <piUpdate>
 800064e:	ee07 0a90 	vmov	s15, r0
 8000652:	eef8 7a67 	vcvt.f32.u32	s15, s15
 8000656:	eefc 7ae7 	vcvt.u32.f32	s15, s15
 800065a:	ee17 0a90 	vmov	r0, s15
 800065e:	f000 fb87 	bl	8000d70 <pwmSetDuty>
 8000662:	9901      	ldr	r1, [sp, #4]
 8000664:	7828      	ldrb	r0, [r5, #0]
 8000666:	4632      	mov	r2, r6
 8000668:	f7ff ff6c 	bl	8000544 <canPublishTelemetry>
 800066c:	b003      	add	sp, #12
 800066e:	bdf0      	pop	{r4, r5, r6, r7, pc}
 8000670:	2c04      	cmp	r4, #4
 8000672:	d106      	bne.n	8000682 <converterProcess+0x7e>
 8000674:	edd6 7a01 	vldr	s15, [r6, #4]
 8000678:	ed9f 0a0d 	vldr	s0, [pc, #52]	@ 80006b0 <converterProcess+0xac>
 800067c:	eef8 0ae7 	vcvt.f32.s32	s1, s15
 8000680:	e7e2      	b.n	8000648 <converterProcess+0x44>
 8000682:	2c01      	cmp	r4, #1
 8000684:	d1ed      	bne.n	8000662 <converterProcess+0x5e>
 8000686:	782b      	ldrb	r3, [r5, #0]
 8000688:	2b01      	cmp	r3, #1
 800068a:	d0ea      	beq.n	8000662 <converterProcess+0x5e>
 800068c:	702c      	strb	r4, [r5, #0]
 800068e:	f000 fb53 	bl	8000d38 <prechargeStart>
 8000692:	b90f      	cbnz	r7, 8000698 <converterProcess+0x94>
 8000694:	702f      	strb	r7, [r5, #0]
 8000696:	e7e4      	b.n	8000662 <converterProcess+0x5e>
 8000698:	2302      	movs	r3, #2
 800069a:	702b      	strb	r3, [r5, #0]
 800069c:	e7e1      	b.n	8000662 <converterProcess+0x5e>
 800069e:	bf00      	nop
 80006a0:	20000004 	.word	0x20000004
 80006a4:	20000040 	.word	0x20000040
 80006a8:	20000008 	.word	0x20000008
 80006ac:	447a0000 	.word	0x447a0000
 80006b0:	c47a0000 	.word	0xc47a0000

080006b4 <diagCheck>:
 80006b4:	e92d 41f0 	stmdb	sp!, {r4, r5, r6, r7, r8, lr}
 80006b8:	2500      	movs	r5, #0
 80006ba:	600d      	str	r5, [r1, #0]
 80006bc:	edd0 7a00 	vldr	s15, [r0]
 80006c0:	eddf 6a45 	vldr	s13, [pc, #276]	@ 80007d8 <diagCheck+0x124>
 80006c4:	eef8 7ae7 	vcvt.f32.s32	s15, s15
 80006c8:	460c      	mov	r4, r1
 80006ca:	eef4 7ae6 	vcmpe.f32	s15, s13
 80006ce:	eef1 fa10 	vmrs	APSR_nzcv, fpscr
 80006d2:	dc22      	bgt.n	800071a <diagCheck+0x66>
 80006d4:	ed9f 7a41 	vldr	s14, [pc, #260]	@ 80007dc <diagCheck+0x128>
 80006d8:	eef4 7ac7 	vcmpe.f32	s15, s14
 80006dc:	eef1 fa10 	vmrs	APSR_nzcv, fpscr
 80006e0:	d41b      	bmi.n	800071a <diagCheck+0x66>
 80006e2:	edd0 7a01 	vldr	s15, [r0, #4]
 80006e6:	eef8 7ae7 	vcvt.f32.s32	s15, s15
 80006ea:	eef4 7ae6 	vcmpe.f32	s15, s13
 80006ee:	eef1 fa10 	vmrs	APSR_nzcv, fpscr
 80006f2:	dc12      	bgt.n	800071a <diagCheck+0x66>
 80006f4:	eef4 7ac7 	vcmpe.f32	s15, s14
 80006f8:	eef1 fa10 	vmrs	APSR_nzcv, fpscr
 80006fc:	d40d      	bmi.n	800071a <diagCheck+0x66>
 80006fe:	edd0 7a02 	vldr	s15, [r0, #8]
 8000702:	eef8 7ae7 	vcvt.f32.s32	s15, s15
 8000706:	eef4 7ae6 	vcmpe.f32	s15, s13
 800070a:	eef1 fa10 	vmrs	APSR_nzcv, fpscr
 800070e:	dc04      	bgt.n	800071a <diagCheck+0x66>
 8000710:	eef4 7ac7 	vcmpe.f32	s15, s14
 8000714:	eef1 fa10 	vmrs	APSR_nzcv, fpscr
 8000718:	d502      	bpl.n	8000720 <diagCheck+0x6c>
 800071a:	2304      	movs	r3, #4
 800071c:	6023      	str	r3, [r4, #0]
 800071e:	2501      	movs	r5, #1
 8000720:	edd0 7a03 	vldr	s15, [r0, #12]
 8000724:	ed9f 7a2e 	vldr	s14, [pc, #184]	@ 80007e0 <diagCheck+0x12c>
 8000728:	eef8 7ae7 	vcvt.f32.s32	s15, s15
 800072c:	eef4 7ac7 	vcmpe.f32	s15, s14
 8000730:	eef1 fa10 	vmrs	APSR_nzcv, fpscr
 8000734:	dc08      	bgt.n	8000748 <diagCheck+0x94>
 8000736:	edd0 7a04 	vldr	s15, [r0, #16]
 800073a:	eef8 7ae7 	vcvt.f32.s32	s15, s15
 800073e:	eef4 7ac7 	vcmpe.f32	s15, s14
 8000742:	eef1 fa10 	vmrs	APSR_nzcv, fpscr
 8000746:	dd04      	ble.n	8000752 <diagCheck+0x9e>
 8000748:	6823      	ldr	r3, [r4, #0]
 800074a:	f043 0301 	orr.w	r3, r3, #1
 800074e:	6023      	str	r3, [r4, #0]
 8000750:	2501      	movs	r5, #1
 8000752:	edd0 7a03 	vldr	s15, [r0, #12]
 8000756:	eef8 7ae7 	vcvt.f32.s32	s15, s15
 800075a:	eef5 7ac0 	vcmpe.f32	s15, #0.0
 800075e:	eef1 fa10 	vmrs	APSR_nzcv, fpscr
 8000762:	d408      	bmi.n	8000776 <diagCheck+0xc2>
 8000764:	edd0 7a04 	vldr	s15, [r0, #16]
 8000768:	eef8 7ae7 	vcvt.f32.s32	s15, s15
 800076c:	eef5 7ac0 	vcmpe.f32	s15, #0.0
 8000770:	eef1 fa10 	vmrs	APSR_nzcv, fpscr
 8000774:	d504      	bpl.n	8000780 <diagCheck+0xcc>
 8000776:	6823      	ldr	r3, [r4, #0]
 8000778:	f043 0302 	orr.w	r3, r3, #2
 800077c:	6023      	str	r3, [r4, #0]
 800077e:	2501      	movs	r5, #1
 8000780:	4f18      	ldr	r7, [pc, #96]	@ (80007e4 <diagCheck+0x130>)
 8000782:	2604      	movs	r6, #4
 8000784:	46b8      	mov	r8, r7
 8000786:	f838 1b02 	ldrh.w	r1, [r8], #2
 800078a:	f04f 4090 	mov.w	r0, #1207959552	@ 0x48000000
 800078e:	f002 fa87 	bl	8002ca0 <HAL_GPIO_ReadPin>
 8000792:	2801      	cmp	r0, #1
 8000794:	d116      	bne.n	80007c4 <diagCheck+0x110>
 8000796:	6823      	ldr	r3, [r4, #0]
 8000798:	f043 0308 	orr.w	r3, r3, #8
 800079c:	6023      	str	r3, [r4, #0]
 800079e:	4605      	mov	r5, r0
 80007a0:	f8df 8044 	ldr.w	r8, [pc, #68]	@ 80007e8 <diagCheck+0x134>
 80007a4:	2604      	movs	r6, #4
 80007a6:	f837 1b02 	ldrh.w	r1, [r7], #2
 80007aa:	4640      	mov	r0, r8
 80007ac:	f002 fa78 	bl	8002ca0 <HAL_GPIO_ReadPin>
 80007b0:	2801      	cmp	r0, #1
 80007b2:	d10c      	bne.n	80007ce <diagCheck+0x11a>
 80007b4:	6823      	ldr	r3, [r4, #0]
 80007b6:	f043 0308 	orr.w	r3, r3, #8
 80007ba:	6023      	str	r3, [r4, #0]
 80007bc:	4605      	mov	r5, r0
 80007be:	4628      	mov	r0, r5
 80007c0:	e8bd 81f0 	ldmia.w	sp!, {r4, r5, r6, r7, r8, pc}
 80007c4:	3e01      	subs	r6, #1
 80007c6:	f016 06ff 	ands.w	r6, r6, #255	@ 0xff
 80007ca:	d1dc      	bne.n	8000786 <diagCheck+0xd2>
 80007cc:	e7e8      	b.n	80007a0 <diagCheck+0xec>
 80007ce:	3e01      	subs	r6, #1
 80007d0:	f016 06ff 	ands.w	r6, r6, #255	@ 0xff
 80007d4:	d1e7      	bne.n	80007a6 <diagCheck+0xf2>
 80007d6:	e7f2      	b.n	80007be <diagCheck+0x10a>
 80007d8:	451c4000 	.word	0x451c4000
 80007dc:	c51c4000 	.word	0xc51c4000
 80007e0:	44480000 	.word	0x44480000
 80007e4:	08004bd0 	.word	0x08004bd0
 80007e8:	48000400 	.word	0x48000400

080007ec <HAL_TIM_OC_DelayElapsedCallback>:
 80007ec:	6802      	ldr	r2, [r0, #0]
 80007ee:	4b0b      	ldr	r3, [pc, #44]	@ (800081c <HAL_TIM_OC_DelayElapsedCallback+0x30>)
 80007f0:	429a      	cmp	r2, r3
 80007f2:	b510      	push	{r4, lr}
 80007f4:	d10f      	bne.n	8000816 <HAL_TIM_OC_DelayElapsedCallback+0x2a>
 80007f6:	7f03      	ldrb	r3, [r0, #28]
 80007f8:	2b08      	cmp	r3, #8
 80007fa:	d10c      	bne.n	8000816 <HAL_TIM_OC_DelayElapsedCallback+0x2a>
 80007fc:	4c08      	ldr	r4, [pc, #32]	@ (8000820 <HAL_TIM_OC_DelayElapsedCallback+0x34>)
 80007fe:	6823      	ldr	r3, [r4, #0]
 8000800:	2b14      	cmp	r3, #20
 8000802:	d109      	bne.n	8000818 <HAL_TIM_OC_DelayElapsedCallback+0x2c>
 8000804:	f000 fb0e 	bl	8000e24 <sensorRead>
 8000808:	4806      	ldr	r0, [pc, #24]	@ (8000824 <HAL_TIM_OC_DelayElapsedCallback+0x38>)
 800080a:	f44f 4180 	mov.w	r1, #16384	@ 0x4000
 800080e:	f002 fa52 	bl	8002cb6 <HAL_GPIO_TogglePin>
 8000812:	2300      	movs	r3, #0
 8000814:	6023      	str	r3, [r4, #0]
 8000816:	bd10      	pop	{r4, pc}
 8000818:	3301      	adds	r3, #1
 800081a:	e7fb      	b.n	8000814 <HAL_TIM_OC_DelayElapsedCallback+0x28>
 800081c:	40012c00 	.word	0x40012c00
 8000820:	2000000c 	.word	0x2000000c
 8000824:	48000800 	.word	0x48000800

08000828 <HAL_TIM_PeriodElapsedCallback>:
 8000828:	b508      	push	{r3, lr}
 800082a:	6802      	ldr	r2, [r0, #0]
 800082c:	4b07      	ldr	r3, [pc, #28]	@ (800084c <HAL_TIM_PeriodElapsedCallback+0x24>)
 800082e:	429a      	cmp	r2, r3
 8000830:	d10a      	bne.n	8000848 <HAL_TIM_PeriodElapsedCallback+0x20>
 8000832:	f7ff fee1 	bl	80005f8 <ConverterGetState>
 8000836:	f7ff fee5 	bl	8000604 <converterProcess>
 800083a:	e8bd 4008 	ldmia.w	sp!, {r3, lr}
 800083e:	4804      	ldr	r0, [pc, #16]	@ (8000850 <HAL_TIM_PeriodElapsedCallback+0x28>)
 8000840:	f44f 4100 	mov.w	r1, #32768	@ 0x8000
 8000844:	f002 ba37 	b.w	8002cb6 <HAL_GPIO_TogglePin>
 8000848:	bd08      	pop	{r3, pc}
 800084a:	bf00      	nop
 800084c:	40001000 	.word	0x40001000
 8000850:	48000800 	.word	0x48000800

08000854 <SystemClock_Config>:
 8000854:	b510      	push	{r4, lr}
 8000856:	b094      	sub	sp, #80	@ 0x50
 8000858:	2238      	movs	r2, #56	@ 0x38
 800085a:	2100      	movs	r1, #0
 800085c:	a806      	add	r0, sp, #24
 800085e:	f004 f97e 	bl	8004b5e <memset>
 8000862:	2214      	movs	r2, #20
 8000864:	2100      	movs	r1, #0
 8000866:	a801      	add	r0, sp, #4
 8000868:	f004 f979 	bl	8004b5e <memset>
 800086c:	2000      	movs	r0, #0
 800086e:	f002 fa2b 	bl	8002cc8 <HAL_PWREx_ControlVoltageScaling>
 8000872:	2201      	movs	r2, #1
 8000874:	f44f 3380 	mov.w	r3, #65536	@ 0x10000
 8000878:	e9cd 2306 	strd	r2, r3, [sp, #24]
 800087c:	2403      	movs	r4, #3
 800087e:	2302      	movs	r3, #2
 8000880:	2255      	movs	r2, #85	@ 0x55
 8000882:	a806      	add	r0, sp, #24
 8000884:	e9cd 340d 	strd	r3, r4, [sp, #52]	@ 0x34
 8000888:	e9cd 2310 	strd	r2, r3, [sp, #64]	@ 0x40
 800088c:	e9cd 3312 	strd	r3, r3, [sp, #72]	@ 0x48
 8000890:	930f      	str	r3, [sp, #60]	@ 0x3c
 8000892:	f002 fa79 	bl	8002d88 <HAL_RCC_OscConfig>
 8000896:	b108      	cbz	r0, 800089c <SystemClock_Config+0x48>
 8000898:	b672      	cpsid	i
 800089a:	e7fe      	b.n	800089a <SystemClock_Config+0x46>
 800089c:	230f      	movs	r3, #15
 800089e:	2104      	movs	r1, #4
 80008a0:	e9cd 3401 	strd	r3, r4, [sp, #4]
 80008a4:	e9cd 0003 	strd	r0, r0, [sp, #12]
 80008a8:	f44f 63c0 	mov.w	r3, #1536	@ 0x600
 80008ac:	eb0d 0001 	add.w	r0, sp, r1
 80008b0:	9305      	str	r3, [sp, #20]
 80008b2:	f002 fcab 	bl	800320c <HAL_RCC_ClockConfig>
 80008b6:	b108      	cbz	r0, 80008bc <SystemClock_Config+0x68>
 80008b8:	b672      	cpsid	i
 80008ba:	e7fe      	b.n	80008ba <SystemClock_Config+0x66>
 80008bc:	b014      	add	sp, #80	@ 0x50
 80008be:	bd10      	pop	{r4, pc}

080008c0 <main>:
 80008c0:	b580      	push	{r7, lr}
 80008c2:	2714      	movs	r7, #20
 80008c4:	b09e      	sub	sp, #120	@ 0x78
 80008c6:	f000 fd7d 	bl	80013c4 <HAL_Init>
 80008ca:	f7ff ffc3 	bl	8000854 <SystemClock_Config>
 80008ce:	463a      	mov	r2, r7
 80008d0:	2100      	movs	r1, #0
 80008d2:	a80f      	add	r0, sp, #60	@ 0x3c
 80008d4:	f004 f943 	bl	8004b5e <memset>
 80008d8:	4baf      	ldr	r3, [pc, #700]	@ (8000b98 <main+0x2d8>)
 80008da:	48b0      	ldr	r0, [pc, #704]	@ (8000b9c <main+0x2dc>)
 80008dc:	6cda      	ldr	r2, [r3, #76]	@ 0x4c
 80008de:	4db0      	ldr	r5, [pc, #704]	@ (8000ba0 <main+0x2e0>)
 80008e0:	f042 0204 	orr.w	r2, r2, #4
 80008e4:	64da      	str	r2, [r3, #76]	@ 0x4c
 80008e6:	6cda      	ldr	r2, [r3, #76]	@ 0x4c
 80008e8:	f002 0204 	and.w	r2, r2, #4
 80008ec:	9200      	str	r2, [sp, #0]
 80008ee:	9a00      	ldr	r2, [sp, #0]
 80008f0:	6cda      	ldr	r2, [r3, #76]	@ 0x4c
 80008f2:	f042 0220 	orr.w	r2, r2, #32
 80008f6:	64da      	str	r2, [r3, #76]	@ 0x4c
 80008f8:	6cda      	ldr	r2, [r3, #76]	@ 0x4c
 80008fa:	f002 0220 	and.w	r2, r2, #32
 80008fe:	9201      	str	r2, [sp, #4]
 8000900:	9a01      	ldr	r2, [sp, #4]
 8000902:	6cda      	ldr	r2, [r3, #76]	@ 0x4c
 8000904:	f042 0201 	orr.w	r2, r2, #1
 8000908:	64da      	str	r2, [r3, #76]	@ 0x4c
 800090a:	6cda      	ldr	r2, [r3, #76]	@ 0x4c
 800090c:	f002 0201 	and.w	r2, r2, #1
 8000910:	9202      	str	r2, [sp, #8]
 8000912:	9a02      	ldr	r2, [sp, #8]
 8000914:	6cda      	ldr	r2, [r3, #76]	@ 0x4c
 8000916:	f042 0202 	orr.w	r2, r2, #2
 800091a:	64da      	str	r2, [r3, #76]	@ 0x4c
 800091c:	6cdb      	ldr	r3, [r3, #76]	@ 0x4c
 800091e:	f003 0302 	and.w	r3, r3, #2
 8000922:	9303      	str	r3, [sp, #12]
 8000924:	2200      	movs	r2, #0
 8000926:	f44f 4140 	mov.w	r1, #49152	@ 0xc000
 800092a:	9b03      	ldr	r3, [sp, #12]
 800092c:	f002 f9be 	bl	8002cac <HAL_GPIO_WritePin>
 8000930:	2200      	movs	r2, #0
 8000932:	f44f 6180 	mov.w	r1, #1024	@ 0x400
 8000936:	f04f 4090 	mov.w	r0, #1207959552	@ 0x48000000
 800093a:	2400      	movs	r4, #0
 800093c:	f002 f9b6 	bl	8002cac <HAL_GPIO_WritePin>
 8000940:	2601      	movs	r6, #1
 8000942:	f44f 4340 	mov.w	r3, #49152	@ 0xc000
 8000946:	4895      	ldr	r0, [pc, #596]	@ (8000b9c <main+0x2dc>)
 8000948:	a90f      	add	r1, sp, #60	@ 0x3c
 800094a:	e9cd 360f 	strd	r3, r6, [sp, #60]	@ 0x3c
 800094e:	e9cd 4411 	strd	r4, r4, [sp, #68]	@ 0x44
 8000952:	f002 f8db 	bl	8002b0c <HAL_GPIO_Init>
 8000956:	23f0      	movs	r3, #240	@ 0xf0
 8000958:	a90f      	add	r1, sp, #60	@ 0x3c
 800095a:	f04f 4090 	mov.w	r0, #1207959552	@ 0x48000000
 800095e:	e9cd 340f 	strd	r3, r4, [sp, #60]	@ 0x3c
 8000962:	9411      	str	r4, [sp, #68]	@ 0x44
 8000964:	f002 f8d2 	bl	8002b0c <HAL_GPIO_Init>
 8000968:	f44f 6380 	mov.w	r3, #1024	@ 0x400
 800096c:	a90f      	add	r1, sp, #60	@ 0x3c
 800096e:	f04f 4090 	mov.w	r0, #1207959552	@ 0x48000000
 8000972:	e9cd 360f 	strd	r3, r6, [sp, #60]	@ 0x3c
 8000976:	e9cd 4411 	strd	r4, r4, [sp, #68]	@ 0x44
 800097a:	f002 f8c7 	bl	8002b0c <HAL_GPIO_Init>
 800097e:	f44f 733c 	mov.w	r3, #752	@ 0x2f0
 8000982:	4888      	ldr	r0, [pc, #544]	@ (8000ba4 <main+0x2e4>)
 8000984:	9411      	str	r4, [sp, #68]	@ 0x44
 8000986:	a90f      	add	r1, sp, #60	@ 0x3c
 8000988:	e9cd 340f 	strd	r3, r4, [sp, #60]	@ 0x3c
 800098c:	f002 f8be 	bl	8002b0c <HAL_GPIO_Init>
 8000990:	2220      	movs	r2, #32
 8000992:	4621      	mov	r1, r4
 8000994:	a807      	add	r0, sp, #28
 8000996:	e9cd 4404 	strd	r4, r4, [sp, #16]
 800099a:	9406      	str	r4, [sp, #24]
 800099c:	f004 f8df 	bl	8004b5e <memset>
 80009a0:	223c      	movs	r2, #60	@ 0x3c
 80009a2:	4621      	mov	r1, r4
 80009a4:	eb0d 0002 	add.w	r0, sp, r2
 80009a8:	f004 f8d9 	bl	8004b5e <memset>
 80009ac:	f04f 0804 	mov.w	r8, #4
 80009b0:	f04f 41a0 	mov.w	r1, #1342177280	@ 0x50000000
 80009b4:	f44f 3340 	mov.w	r3, #196608	@ 0x30000
 80009b8:	4628      	mov	r0, r5
 80009ba:	e9c5 1300 	strd	r1, r3, [r5]
 80009be:	e9c5 4402 	strd	r4, r4, [r5, #8]
 80009c2:	e9c5 4604 	strd	r4, r6, [r5, #16]
 80009c6:	e9c5 440b 	strd	r4, r4, [r5, #44]	@ 0x2c
 80009ca:	f8c5 8018 	str.w	r8, [r5, #24]
 80009ce:	83ac      	strh	r4, [r5, #28]
 80009d0:	622e      	str	r6, [r5, #32]
 80009d2:	f885 4024 	strb.w	r4, [r5, #36]	@ 0x24
 80009d6:	f885 4038 	strb.w	r4, [r5, #56]	@ 0x38
 80009da:	63ec      	str	r4, [r5, #60]	@ 0x3c
 80009dc:	f885 4040 	strb.w	r4, [r5, #64]	@ 0x40
 80009e0:	f000 fd3e 	bl	8001460 <HAL_ADC_Init>
 80009e4:	b108      	cbz	r0, 80009ea <main+0x12a>
 80009e6:	b672      	cpsid	i
 80009e8:	e7fe      	b.n	80009e8 <main+0x128>
 80009ea:	9004      	str	r0, [sp, #16]
 80009ec:	a904      	add	r1, sp, #16
 80009ee:	4628      	mov	r0, r5
 80009f0:	f001 fcf2 	bl	80023d8 <HAL_ADCEx_MultiModeConfigChannel>
 80009f4:	b108      	cbz	r0, 80009fa <main+0x13a>
 80009f6:	b672      	cpsid	i
 80009f8:	e7fe      	b.n	80009f8 <main+0x138>
 80009fa:	f8df 91c4 	ldr.w	r9, [pc, #452]	@ 8000bc0 <main+0x300>
 80009fe:	9009      	str	r0, [sp, #36]	@ 0x24
 8000a00:	2306      	movs	r3, #6
 8000a02:	247f      	movs	r4, #127	@ 0x7f
 8000a04:	900c      	str	r0, [sp, #48]	@ 0x30
 8000a06:	a907      	add	r1, sp, #28
 8000a08:	4628      	mov	r0, r5
 8000a0a:	e9cd 9307 	strd	r9, r3, [sp, #28]
 8000a0e:	e9cd 480a 	strd	r4, r8, [sp, #40]	@ 0x28
 8000a12:	f000 fecb 	bl	80017ac <HAL_ADC_ConfigChannel>
 8000a16:	b108      	cbz	r0, 8000a1c <main+0x15c>
 8000a18:	b672      	cpsid	i
 8000a1a:	e7fe      	b.n	8000a1a <main+0x15a>
 8000a1c:	2309      	movs	r3, #9
 8000a1e:	e9cd 3010 	strd	r3, r0, [sp, #64]	@ 0x40
 8000a22:	e9cd 0019 	strd	r0, r0, [sp, #100]	@ 0x64
 8000a26:	9014      	str	r0, [sp, #80]	@ 0x50
 8000a28:	f8ad 0060 	strh.w	r0, [sp, #96]	@ 0x60
 8000a2c:	f88d 0062 	strb.w	r0, [sp, #98]	@ 0x62
 8000a30:	f88d 006c 	strb.w	r0, [sp, #108]	@ 0x6c
 8000a34:	a90f      	add	r1, sp, #60	@ 0x3c
 8000a36:	4628      	mov	r0, r5
 8000a38:	e9cd 4812 	strd	r4, r8, [sp, #72]	@ 0x48
 8000a3c:	f8cd 903c 	str.w	r9, [sp, #60]	@ 0x3c
 8000a40:	f8cd 805c 	str.w	r8, [sp, #92]	@ 0x5c
 8000a44:	f001 fa68 	bl	8001f18 <HAL_ADCEx_InjectedConfigChannel>
 8000a48:	b108      	cbz	r0, 8000a4e <main+0x18e>
 8000a4a:	b672      	cpsid	i
 8000a4c:	e7fe      	b.n	8000a4c <main+0x18c>
 8000a4e:	f240 130f 	movw	r3, #271	@ 0x10f
 8000a52:	a90f      	add	r1, sp, #60	@ 0x3c
 8000a54:	4628      	mov	r0, r5
 8000a56:	9310      	str	r3, [sp, #64]	@ 0x40
 8000a58:	f001 fa5e 	bl	8001f18 <HAL_ADCEx_InjectedConfigChannel>
 8000a5c:	b108      	cbz	r0, 8000a62 <main+0x1a2>
 8000a5e:	b672      	cpsid	i
 8000a60:	e7fe      	b.n	8000a60 <main+0x1a0>
 8000a62:	f240 2315 	movw	r3, #533	@ 0x215
 8000a66:	a90f      	add	r1, sp, #60	@ 0x3c
 8000a68:	4628      	mov	r0, r5
 8000a6a:	9310      	str	r3, [sp, #64]	@ 0x40
 8000a6c:	f001 fa54 	bl	8001f18 <HAL_ADCEx_InjectedConfigChannel>
 8000a70:	b108      	cbz	r0, 8000a76 <main+0x1b6>
 8000a72:	b672      	cpsid	i
 8000a74:	e7fe      	b.n	8000a74 <main+0x1b4>
 8000a76:	f240 331b 	movw	r3, #795	@ 0x31b
 8000a7a:	a90f      	add	r1, sp, #60	@ 0x3c
 8000a7c:	4628      	mov	r0, r5
 8000a7e:	9310      	str	r3, [sp, #64]	@ 0x40
 8000a80:	f001 fa4a 	bl	8001f18 <HAL_ADCEx_InjectedConfigChannel>
 8000a84:	4603      	mov	r3, r0
 8000a86:	b108      	cbz	r0, 8000a8c <main+0x1cc>
 8000a88:	b672      	cpsid	i
 8000a8a:	e7fe      	b.n	8000a8a <main+0x1ca>
 8000a8c:	4846      	ldr	r0, [pc, #280]	@ (8000ba8 <main+0x2e8>)
 8000a8e:	4a47      	ldr	r2, [pc, #284]	@ (8000bac <main+0x2ec>)
 8000a90:	8203      	strh	r3, [r0, #16]
 8000a92:	250e      	movs	r5, #14
 8000a94:	2402      	movs	r4, #2
 8000a96:	e9c0 2300 	strd	r2, r3, [r0]
 8000a9a:	e9c0 3302 	strd	r3, r3, [r0, #8]
 8000a9e:	e9c0 330d 	strd	r3, r3, [r0, #52]	@ 0x34
 8000aa2:	7483      	strb	r3, [r0, #18]
 8000aa4:	63c3      	str	r3, [r0, #60]	@ 0x3c
 8000aa6:	e9c0 7605 	strd	r7, r6, [r0, #20]
 8000aaa:	e9c0 5407 	strd	r5, r4, [r0, #28]
 8000aae:	e9c0 6609 	strd	r6, r6, [r0, #36]	@ 0x24
 8000ab2:	e9c0 660b 	strd	r6, r6, [r0, #44]	@ 0x2c
 8000ab6:	f001 fd8d 	bl	80025d4 <HAL_FDCAN_Init>
 8000aba:	4603      	mov	r3, r0
 8000abc:	b108      	cbz	r0, 8000ac2 <main+0x202>
 8000abe:	b672      	cpsid	i
 8000ac0:	e7fe      	b.n	8000ac0 <main+0x200>
 8000ac2:	483b      	ldr	r0, [pc, #236]	@ (8000bb0 <main+0x2f0>)
 8000ac4:	4a3b      	ldr	r2, [pc, #236]	@ (8000bb4 <main+0x2f4>)
 8000ac6:	8203      	strh	r3, [r0, #16]
 8000ac8:	e9c0 5407 	strd	r5, r4, [r0, #28]
 8000acc:	e9c0 2300 	strd	r2, r3, [r0]
 8000ad0:	e9c0 3302 	strd	r3, r3, [r0, #8]
 8000ad4:	e9c0 7605 	strd	r7, r6, [r0, #20]
 8000ad8:	e9c0 6609 	strd	r6, r6, [r0, #36]	@ 0x24
 8000adc:	e9c0 660b 	strd	r6, r6, [r0, #44]	@ 0x2c
 8000ae0:	e9c0 330d 	strd	r3, r3, [r0, #52]	@ 0x34
 8000ae4:	7483      	strb	r3, [r0, #18]
 8000ae6:	63c3      	str	r3, [r0, #60]	@ 0x3c
 8000ae8:	f001 fd74 	bl	80025d4 <HAL_FDCAN_Init>
 8000aec:	4604      	mov	r4, r0
 8000aee:	b108      	cbz	r0, 8000af4 <main+0x234>
 8000af0:	b672      	cpsid	i
 8000af2:	e7fe      	b.n	8000af2 <main+0x232>
 8000af4:	221c      	movs	r2, #28
 8000af6:	4601      	mov	r1, r0
 8000af8:	e9cd 0004 	strd	r0, r0, [sp, #16]
 8000afc:	9006      	str	r0, [sp, #24]
 8000afe:	eb0d 0002 	add.w	r0, sp, r2
 8000b02:	f004 f82c 	bl	8004b5e <memset>
 8000b06:	2234      	movs	r2, #52	@ 0x34
 8000b08:	4621      	mov	r1, r4
 8000b0a:	a80f      	add	r0, sp, #60	@ 0x3c
 8000b0c:	f004 f827 	bl	8004b5e <memset>
 8000b10:	4829      	ldr	r0, [pc, #164]	@ (8000bb8 <main+0x2f8>)
 8000b12:	4b2a      	ldr	r3, [pc, #168]	@ (8000bbc <main+0x2fc>)
 8000b14:	6084      	str	r4, [r0, #8]
 8000b16:	e9c0 3400 	strd	r3, r4, [r0]
 8000b1a:	f241 2371 	movw	r3, #4721	@ 0x1271
 8000b1e:	e9c0 3403 	strd	r3, r4, [r0, #12]
 8000b22:	e9c0 4405 	strd	r4, r4, [r0, #20]
 8000b26:	f003 f909 	bl	8003d3c <HAL_TIM_PWM_Init>
 8000b2a:	b108      	cbz	r0, 8000b30 <main+0x270>
 8000b2c:	b672      	cpsid	i
 8000b2e:	e7fe      	b.n	8000b2e <main+0x26e>
 8000b30:	4821      	ldr	r0, [pc, #132]	@ (8000bb8 <main+0x2f8>)
 8000b32:	f003 f8d3 	bl	8003cdc <HAL_TIM_OC_Init>
 8000b36:	b108      	cbz	r0, 8000b3c <main+0x27c>
 8000b38:	b672      	cpsid	i
 8000b3a:	e7fe      	b.n	8000b3a <main+0x27a>
 8000b3c:	e9cd 0004 	strd	r0, r0, [sp, #16]
 8000b40:	9006      	str	r0, [sp, #24]
 8000b42:	a904      	add	r1, sp, #16
 8000b44:	481c      	ldr	r0, [pc, #112]	@ (8000bb8 <main+0x2f8>)
 8000b46:	f003 fc67 	bl	8004418 <HAL_TIMEx_MasterConfigSynchronization>
 8000b4a:	4602      	mov	r2, r0
 8000b4c:	b108      	cbz	r0, 8000b52 <main+0x292>
 8000b4e:	b672      	cpsid	i
 8000b50:	e7fe      	b.n	8000b50 <main+0x290>
 8000b52:	2360      	movs	r3, #96	@ 0x60
 8000b54:	e9cd 3007 	strd	r3, r0, [sp, #28]
 8000b58:	e9cd 0009 	strd	r0, r0, [sp, #36]	@ 0x24
 8000b5c:	e9cd 000b 	strd	r0, r0, [sp, #44]	@ 0x2c
 8000b60:	900d      	str	r0, [sp, #52]	@ 0x34
 8000b62:	a907      	add	r1, sp, #28
 8000b64:	4814      	ldr	r0, [pc, #80]	@ (8000bb8 <main+0x2f8>)
 8000b66:	f003 f98f 	bl	8003e88 <HAL_TIM_PWM_ConfigChannel>
 8000b6a:	b108      	cbz	r0, 8000b70 <main+0x2b0>
 8000b6c:	b672      	cpsid	i
 8000b6e:	e7fe      	b.n	8000b6e <main+0x2ae>
 8000b70:	4811      	ldr	r0, [pc, #68]	@ (8000bb8 <main+0x2f8>)
 8000b72:	2204      	movs	r2, #4
 8000b74:	a907      	add	r1, sp, #28
 8000b76:	f003 f987 	bl	8003e88 <HAL_TIM_PWM_ConfigChannel>
 8000b7a:	b108      	cbz	r0, 8000b80 <main+0x2c0>
 8000b7c:	b672      	cpsid	i
 8000b7e:	e7fe      	b.n	8000b7e <main+0x2be>
 8000b80:	9007      	str	r0, [sp, #28]
 8000b82:	f640 03fc 	movw	r3, #2300	@ 0x8fc
 8000b86:	480c      	ldr	r0, [pc, #48]	@ (8000bb8 <main+0x2f8>)
 8000b88:	9308      	str	r3, [sp, #32]
 8000b8a:	220c      	movs	r2, #12
 8000b8c:	a907      	add	r1, sp, #28
 8000b8e:	f003 f949 	bl	8003e24 <HAL_TIM_OC_ConfigChannel>
 8000b92:	b1b8      	cbz	r0, 8000bc4 <main+0x304>
 8000b94:	b672      	cpsid	i
 8000b96:	e7fe      	b.n	8000b96 <main+0x2d6>
 8000b98:	40021000 	.word	0x40021000
 8000b9c:	48000800 	.word	0x48000800
 8000ba0:	20000250 	.word	0x20000250
 8000ba4:	48000400 	.word	0x48000400
 8000ba8:	200001ec 	.word	0x200001ec
 8000bac:	40006400 	.word	0x40006400
 8000bb0:	20000188 	.word	0x20000188
 8000bb4:	40006800 	.word	0x40006800
 8000bb8:	2000013c 	.word	0x2000013c
 8000bbc:	40012c00 	.word	0x40012c00
 8000bc0:	04300002 	.word	0x04300002
 8000bc4:	f44f 5300 	mov.w	r3, #8192	@ 0x2000
 8000bc8:	e9cd 3014 	strd	r3, r0, [sp, #80]	@ 0x50
 8000bcc:	f04f 7300 	mov.w	r3, #33554432	@ 0x2000000
 8000bd0:	e9cd 000f 	strd	r0, r0, [sp, #60]	@ 0x3c
 8000bd4:	e9cd 0011 	strd	r0, r0, [sp, #68]	@ 0x44
 8000bd8:	e9cd 0016 	strd	r0, r0, [sp, #88]	@ 0x58
 8000bdc:	e9cd 3018 	strd	r3, r0, [sp, #96]	@ 0x60
 8000be0:	e9cd 001a 	strd	r0, r0, [sp, #104]	@ 0x68
 8000be4:	9013      	str	r0, [sp, #76]	@ 0x4c
 8000be6:	a90f      	add	r1, sp, #60	@ 0x3c
 8000be8:	482b      	ldr	r0, [pc, #172]	@ (8000c98 <main+0x3d8>)
 8000bea:	f003 fc65 	bl	80044b8 <HAL_TIMEx_ConfigBreakDeadTime>
 8000bee:	4605      	mov	r5, r0
 8000bf0:	b108      	cbz	r0, 8000bf6 <main+0x336>
 8000bf2:	b672      	cpsid	i
 8000bf4:	e7fe      	b.n	8000bf4 <main+0x334>
 8000bf6:	4828      	ldr	r0, [pc, #160]	@ (8000c98 <main+0x3d8>)
 8000bf8:	4c28      	ldr	r4, [pc, #160]	@ (8000c9c <main+0x3dc>)
 8000bfa:	f000 facd 	bl	8001198 <HAL_TIM_MspPostInit>
 8000bfe:	4a28      	ldr	r2, [pc, #160]	@ (8000ca0 <main+0x3e0>)
 8000c00:	6125      	str	r5, [r4, #16]
 8000c02:	f44f 33e1 	mov.w	r3, #115200	@ 0x1c200
 8000c06:	e9c4 2300 	strd	r2, r3, [r4]
 8000c0a:	4620      	mov	r0, r4
 8000c0c:	230c      	movs	r3, #12
 8000c0e:	e9c4 5502 	strd	r5, r5, [r4, #8]
 8000c12:	e9c4 3505 	strd	r3, r5, [r4, #20]
 8000c16:	e9c4 5507 	strd	r5, r5, [r4, #28]
 8000c1a:	e9c4 5509 	strd	r5, r5, [r4, #36]	@ 0x24
 8000c1e:	f003 fef0 	bl	8004a02 <HAL_UART_Init>
 8000c22:	4601      	mov	r1, r0
 8000c24:	b108      	cbz	r0, 8000c2a <main+0x36a>
 8000c26:	b672      	cpsid	i
 8000c28:	e7fe      	b.n	8000c28 <main+0x368>
 8000c2a:	4620      	mov	r0, r4
 8000c2c:	f003 ff57 	bl	8004ade <HAL_UARTEx_SetTxFifoThreshold>
 8000c30:	4601      	mov	r1, r0
 8000c32:	b108      	cbz	r0, 8000c38 <main+0x378>
 8000c34:	b672      	cpsid	i
 8000c36:	e7fe      	b.n	8000c36 <main+0x376>
 8000c38:	4620      	mov	r0, r4
 8000c3a:	f003 ff70 	bl	8004b1e <HAL_UARTEx_SetRxFifoThreshold>
 8000c3e:	b108      	cbz	r0, 8000c44 <main+0x384>
 8000c40:	b672      	cpsid	i
 8000c42:	e7fe      	b.n	8000c42 <main+0x382>
 8000c44:	4620      	mov	r0, r4
 8000c46:	f003 ff2f 	bl	8004aa8 <HAL_UARTEx_DisableFifoMode>
 8000c4a:	b108      	cbz	r0, 8000c50 <main+0x390>
 8000c4c:	b672      	cpsid	i
 8000c4e:	e7fe      	b.n	8000c4e <main+0x38e>
 8000c50:	4c14      	ldr	r4, [pc, #80]	@ (8000ca4 <main+0x3e4>)
 8000c52:	4a15      	ldr	r2, [pc, #84]	@ (8000ca8 <main+0x3e8>)
 8000c54:	2300      	movs	r3, #0
 8000c56:	e9c4 2300 	strd	r2, r3, [r4]
 8000c5a:	4620      	mov	r0, r4
 8000c5c:	f64f 72ff 	movw	r2, #65535	@ 0xffff
 8000c60:	e9cd 330f 	strd	r3, r3, [sp, #60]	@ 0x3c
 8000c64:	9311      	str	r3, [sp, #68]	@ 0x44
 8000c66:	60a3      	str	r3, [r4, #8]
 8000c68:	60e2      	str	r2, [r4, #12]
 8000c6a:	61a3      	str	r3, [r4, #24]
 8000c6c:	f003 f806 	bl	8003c7c <HAL_TIM_Base_Init>
 8000c70:	b108      	cbz	r0, 8000c76 <main+0x3b6>
 8000c72:	b672      	cpsid	i
 8000c74:	e7fe      	b.n	8000c74 <main+0x3b4>
 8000c76:	900f      	str	r0, [sp, #60]	@ 0x3c
 8000c78:	9011      	str	r0, [sp, #68]	@ 0x44
 8000c7a:	a90f      	add	r1, sp, #60	@ 0x3c
 8000c7c:	4620      	mov	r0, r4
 8000c7e:	f003 fbcb 	bl	8004418 <HAL_TIMEx_MasterConfigSynchronization>
 8000c82:	b108      	cbz	r0, 8000c88 <main+0x3c8>
 8000c84:	b672      	cpsid	i
 8000c86:	e7fe      	b.n	8000c86 <main+0x3c6>
 8000c88:	4803      	ldr	r0, [pc, #12]	@ (8000c98 <main+0x3d8>)
 8000c8a:	210c      	movs	r1, #12
 8000c8c:	f003 fa78 	bl	8004180 <HAL_TIM_OC_Start_IT>
 8000c90:	4620      	mov	r0, r4
 8000c92:	f002 fe81 	bl	8003998 <HAL_TIM_Base_Start_IT>
 8000c96:	e7fe      	b.n	8000c96 <main+0x3d6>
 8000c98:	2000013c 	.word	0x2000013c
 8000c9c:	2000005c 	.word	0x2000005c
 8000ca0:	40004800 	.word	0x40004800
 8000ca4:	200000f0 	.word	0x200000f0
 8000ca8:	40001000 	.word	0x40001000

08000cac <Error_Handler>:
 8000cac:	b672      	cpsid	i
 8000cae:	e7fe      	b.n	8000cae <Error_Handler+0x2>

08000cb0 <piUpdate>:
 8000cb0:	ee30 0a60 	vsub.f32	s0, s0, s1
 8000cb4:	ed90 7a01 	vldr	s14, [r0, #4]
 8000cb8:	edd0 7a03 	vldr	s15, [r0, #12]
 8000cbc:	edd0 6a02 	vldr	s13, [r0, #8]
 8000cc0:	ee20 7a07 	vmul.f32	s14, s0, s14
 8000cc4:	eee7 7a26 	vfma.f32	s15, s14, s13
 8000cc8:	ed90 7a05 	vldr	s14, [r0, #20]
 8000ccc:	edc0 7a03 	vstr	s15, [r0, #12]
 8000cd0:	eef4 7ac7 	vcmpe.f32	s15, s14
 8000cd4:	eef1 fa10 	vmrs	APSR_nzcv, fpscr
 8000cd8:	dd13      	ble.n	8000d02 <piUpdate+0x52>
 8000cda:	ed80 7a03 	vstr	s14, [r0, #12]
 8000cde:	edd0 6a00 	vldr	s13, [r0]
 8000ce2:	edd0 7a03 	vldr	s15, [r0, #12]
 8000ce6:	eee6 7a80 	vfma.f32	s15, s13, s0
 8000cea:	eefc 7ae7 	vcvt.u32.f32	s15, s15
 8000cee:	eef8 6a67 	vcvt.f32.u32	s13, s15
 8000cf2:	eeb4 7ae6 	vcmpe.f32	s14, s13
 8000cf6:	eef1 fa10 	vmrs	APSR_nzcv, fpscr
 8000cfa:	d50c      	bpl.n	8000d16 <piUpdate+0x66>
 8000cfc:	eefc 7ac7 	vcvt.u32.f32	s15, s14
 8000d00:	e010      	b.n	8000d24 <piUpdate+0x74>
 8000d02:	edd0 6a04 	vldr	s13, [r0, #16]
 8000d06:	eef4 7ae6 	vcmpe.f32	s15, s13
 8000d0a:	eef1 fa10 	vmrs	APSR_nzcv, fpscr
 8000d0e:	bf48      	it	mi
 8000d10:	edc0 6a03 	vstrmi	s13, [r0, #12]
 8000d14:	e7e3      	b.n	8000cde <piUpdate+0x2e>
 8000d16:	ed90 7a04 	vldr	s14, [r0, #16]
 8000d1a:	eef4 6ac7 	vcmpe.f32	s13, s14
 8000d1e:	eef1 fa10 	vmrs	APSR_nzcv, fpscr
 8000d22:	d4eb      	bmi.n	8000cfc <piUpdate+0x4c>
 8000d24:	edc0 7a06 	vstr	s15, [r0, #24]
 8000d28:	ee17 0a90 	vmov	r0, s15
 8000d2c:	4770      	bx	lr

08000d2e <piReset>:
 8000d2e:	2300      	movs	r3, #0
 8000d30:	60c3      	str	r3, [r0, #12]
 8000d32:	2300      	movs	r3, #0
 8000d34:	6183      	str	r3, [r0, #24]
 8000d36:	4770      	bx	lr

08000d38 <prechargeStart>:
 8000d38:	b538      	push	{r3, r4, r5, lr}
 8000d3a:	4c0c      	ldr	r4, [pc, #48]	@ (8000d6c <prechargeStart+0x34>)
 8000d3c:	7825      	ldrb	r5, [r4, #0]
 8000d3e:	b99d      	cbnz	r5, 8000d68 <prechargeStart+0x30>
 8000d40:	2201      	movs	r2, #1
 8000d42:	f44f 6180 	mov.w	r1, #1024	@ 0x400
 8000d46:	f04f 4090 	mov.w	r0, #1207959552	@ 0x48000000
 8000d4a:	f001 ffaf 	bl	8002cac <HAL_GPIO_WritePin>
 8000d4e:	f241 3088 	movw	r0, #5000	@ 0x1388
 8000d52:	f000 fb59 	bl	8001408 <HAL_Delay>
 8000d56:	462a      	mov	r2, r5
 8000d58:	f44f 6180 	mov.w	r1, #1024	@ 0x400
 8000d5c:	f04f 4090 	mov.w	r0, #1207959552	@ 0x48000000
 8000d60:	f001 ffa4 	bl	8002cac <HAL_GPIO_WritePin>
 8000d64:	2301      	movs	r3, #1
 8000d66:	7023      	strb	r3, [r4, #0]
 8000d68:	bd38      	pop	{r3, r4, r5, pc}
 8000d6a:	bf00      	nop
 8000d6c:	200002bc 	.word	0x200002bc

08000d70 <pwmSetDuty>:
 8000d70:	4b04      	ldr	r3, [pc, #16]	@ (8000d84 <pwmSetDuty+0x14>)
 8000d72:	681b      	ldr	r3, [r3, #0]
 8000d74:	6ada      	ldr	r2, [r3, #44]	@ 0x2c
 8000d76:	4290      	cmp	r0, r2
 8000d78:	bf28      	it	cs
 8000d7a:	4610      	movcs	r0, r2
 8000d7c:	6358      	str	r0, [r3, #52]	@ 0x34
 8000d7e:	6398      	str	r0, [r3, #56]	@ 0x38
 8000d80:	4770      	bx	lr
 8000d82:	bf00      	nop
 8000d84:	2000013c 	.word	0x2000013c

08000d88 <pwmEnable>:
 8000d88:	b538      	push	{r3, r4, r5, lr}
 8000d8a:	4d0b      	ldr	r5, [pc, #44]	@ (8000db8 <pwmEnable+0x30>)
 8000d8c:	782c      	ldrb	r4, [r5, #0]
 8000d8e:	b98c      	cbnz	r4, 8000db4 <pwmEnable+0x2c>
 8000d90:	4621      	mov	r1, r4
 8000d92:	480a      	ldr	r0, [pc, #40]	@ (8000dbc <pwmEnable+0x34>)
 8000d94:	f003 f994 	bl	80040c0 <HAL_TIM_PWM_Start>
 8000d98:	4621      	mov	r1, r4
 8000d9a:	4808      	ldr	r0, [pc, #32]	@ (8000dbc <pwmEnable+0x34>)
 8000d9c:	f003 fb37 	bl	800440e <HAL_TIMEx_PWMN_Start>
 8000da0:	2104      	movs	r1, #4
 8000da2:	4806      	ldr	r0, [pc, #24]	@ (8000dbc <pwmEnable+0x34>)
 8000da4:	f003 f98c 	bl	80040c0 <HAL_TIM_PWM_Start>
 8000da8:	4804      	ldr	r0, [pc, #16]	@ (8000dbc <pwmEnable+0x34>)
 8000daa:	2104      	movs	r1, #4
 8000dac:	f003 fb2f 	bl	800440e <HAL_TIMEx_PWMN_Start>
 8000db0:	2301      	movs	r3, #1
 8000db2:	702b      	strb	r3, [r5, #0]
 8000db4:	bd38      	pop	{r3, r4, r5, pc}
 8000db6:	bf00      	nop
 8000db8:	200002bd 	.word	0x200002bd
 8000dbc:	2000013c 	.word	0x2000013c

08000dc0 <pwmDisable>:
 8000dc0:	b510      	push	{r4, lr}
 8000dc2:	4c0a      	ldr	r4, [pc, #40]	@ (8000dec <pwmDisable+0x2c>)
 8000dc4:	2100      	movs	r1, #0
 8000dc6:	4620      	mov	r0, r4
 8000dc8:	f003 f9d8 	bl	800417c <HAL_TIM_PWM_Stop>
 8000dcc:	2100      	movs	r1, #0
 8000dce:	4620      	mov	r0, r4
 8000dd0:	f003 fb1f 	bl	8004412 <HAL_TIMEx_PWMN_Stop>
 8000dd4:	2104      	movs	r1, #4
 8000dd6:	4620      	mov	r0, r4
 8000dd8:	f003 f9d0 	bl	800417c <HAL_TIM_PWM_Stop>
 8000ddc:	2104      	movs	r1, #4
 8000dde:	4620      	mov	r0, r4
 8000de0:	f003 fb17 	bl	8004412 <HAL_TIMEx_PWMN_Stop>
 8000de4:	4b02      	ldr	r3, [pc, #8]	@ (8000df0 <pwmDisable+0x30>)
 8000de6:	2200      	movs	r2, #0
 8000de8:	701a      	strb	r2, [r3, #0]
 8000dea:	bd10      	pop	{r4, pc}
 8000dec:	2000013c 	.word	0x2000013c
 8000df0:	200002bd 	.word	0x200002bd

08000df4 <pwmHandlerProcess>:
 8000df4:	2801      	cmp	r0, #1
 8000df6:	b510      	push	{r4, lr}
 8000df8:	460c      	mov	r4, r1
 8000dfa:	d001      	beq.n	8000e00 <pwmHandlerProcess+0xc>
 8000dfc:	2902      	cmp	r1, #2
 8000dfe:	d805      	bhi.n	8000e0c <pwmHandlerProcess+0x18>
 8000e00:	f7ff ffde 	bl	8000dc0 <pwmDisable>
 8000e04:	4b06      	ldr	r3, [pc, #24]	@ (8000e20 <pwmHandlerProcess+0x2c>)
 8000e06:	2202      	movs	r2, #2
 8000e08:	701a      	strb	r2, [r3, #0]
 8000e0a:	bd10      	pop	{r4, pc}
 8000e0c:	2903      	cmp	r1, #3
 8000e0e:	d104      	bne.n	8000e1a <pwmHandlerProcess+0x26>
 8000e10:	f7ff ffba 	bl	8000d88 <pwmEnable>
 8000e14:	4b02      	ldr	r3, [pc, #8]	@ (8000e20 <pwmHandlerProcess+0x2c>)
 8000e16:	701c      	strb	r4, [r3, #0]
 8000e18:	e7f7      	b.n	8000e0a <pwmHandlerProcess+0x16>
 8000e1a:	2904      	cmp	r1, #4
 8000e1c:	d1f5      	bne.n	8000e0a <pwmHandlerProcess+0x16>
 8000e1e:	e7f7      	b.n	8000e10 <pwmHandlerProcess+0x1c>
 8000e20:	20000008 	.word	0x20000008

08000e24 <sensorRead>:
 8000e24:	b570      	push	{r4, r5, r6, lr}
 8000e26:	4c2b      	ldr	r4, [pc, #172]	@ (8000ed4 <sensorRead+0xb0>)
 8000e28:	b08e      	sub	sp, #56	@ 0x38
 8000e2a:	ae01      	add	r6, sp, #4
 8000e2c:	2501      	movs	r5, #1
 8000e2e:	2214      	movs	r2, #20
 8000e30:	2100      	movs	r1, #0
 8000e32:	a809      	add	r0, sp, #36	@ 0x24
 8000e34:	f003 fe93 	bl	8004b5e <memset>
 8000e38:	2306      	movs	r3, #6
 8000e3a:	a906      	add	r1, sp, #24
 8000e3c:	4620      	mov	r0, r4
 8000e3e:	e9cd 3307 	strd	r3, r3, [sp, #28]
 8000e42:	9506      	str	r5, [sp, #24]
 8000e44:	f000 fcb2 	bl	80017ac <HAL_ADC_ConfigChannel>
 8000e48:	4620      	mov	r0, r4
 8000e4a:	f000 ff75 	bl	8001d38 <HAL_ADC_Start>
 8000e4e:	210a      	movs	r1, #10
 8000e50:	4620      	mov	r0, r4
 8000e52:	f000 fc17 	bl	8001684 <HAL_ADC_PollForConversion>
 8000e56:	4620      	mov	r0, r4
 8000e58:	f000 fca4 	bl	80017a4 <HAL_ADC_GetValue>
 8000e5c:	3501      	adds	r5, #1
 8000e5e:	f846 0b04 	str.w	r0, [r6], #4
 8000e62:	4620      	mov	r0, r4
 8000e64:	f001 f81d 	bl	8001ea2 <HAL_ADC_Stop>
 8000e68:	2d06      	cmp	r5, #6
 8000e6a:	d1e0      	bne.n	8000e2e <sensorRead+0xa>
 8000e6c:	eddd 7a01 	vldr	s15, [sp, #4]
 8000e70:	ed9f 7a19 	vldr	s14, [pc, #100]	@ 8000ed8 <sensorRead+0xb4>
 8000e74:	4b19      	ldr	r3, [pc, #100]	@ (8000edc <sensorRead+0xb8>)
 8000e76:	eef8 7a67 	vcvt.f32.u32	s15, s15
 8000e7a:	ee67 7a87 	vmul.f32	s15, s15, s14
 8000e7e:	eefd 7ae7 	vcvt.s32.f32	s15, s15
 8000e82:	edc3 7a00 	vstr	s15, [r3]
 8000e86:	eddd 7a02 	vldr	s15, [sp, #8]
 8000e8a:	eef8 7a67 	vcvt.f32.u32	s15, s15
 8000e8e:	ee67 7a87 	vmul.f32	s15, s15, s14
 8000e92:	eefd 7ae7 	vcvt.s32.f32	s15, s15
 8000e96:	edc3 7a01 	vstr	s15, [r3, #4]
 8000e9a:	eddd 7a03 	vldr	s15, [sp, #12]
 8000e9e:	eef8 7a67 	vcvt.f32.u32	s15, s15
 8000ea2:	ee67 7a87 	vmul.f32	s15, s15, s14
 8000ea6:	eefd 7ae7 	vcvt.s32.f32	s15, s15
 8000eaa:	edc3 7a02 	vstr	s15, [r3, #8]
 8000eae:	eddd 7a04 	vldr	s15, [sp, #16]
 8000eb2:	eef8 7a67 	vcvt.f32.u32	s15, s15
 8000eb6:	eefd 7ae7 	vcvt.s32.f32	s15, s15
 8000eba:	edc3 7a03 	vstr	s15, [r3, #12]
 8000ebe:	eddd 7a05 	vldr	s15, [sp, #20]
 8000ec2:	eef8 7a67 	vcvt.f32.u32	s15, s15
 8000ec6:	eefd 7ae7 	vcvt.s32.f32	s15, s15
 8000eca:	edc3 7a04 	vstr	s15, [r3, #16]
 8000ece:	b00e      	add	sp, #56	@ 0x38
 8000ed0:	bd70      	pop	{r4, r5, r6, pc}
 8000ed2:	bf00      	nop
 8000ed4:	20000250 	.word	0x20000250
 8000ed8:	3dcccccd 	.word	0x3dcccccd
 8000edc:	200002c0 	.word	0x200002c0

08000ee0 <sensorGetValues>:
 8000ee0:	4800      	ldr	r0, [pc, #0]	@ (8000ee4 <sensorGetValues+0x4>)
 8000ee2:	4770      	bx	lr
 8000ee4:	200002c0 	.word	0x200002c0

08000ee8 <HAL_MspInit>:
 8000ee8:	4b0d      	ldr	r3, [pc, #52]	@ (8000f20 <HAL_MspInit+0x38>)
 8000eea:	b507      	push	{r0, r1, r2, lr}
 8000eec:	6e1a      	ldr	r2, [r3, #96]	@ 0x60
 8000eee:	f042 0201 	orr.w	r2, r2, #1
 8000ef2:	661a      	str	r2, [r3, #96]	@ 0x60
 8000ef4:	6e1a      	ldr	r2, [r3, #96]	@ 0x60
 8000ef6:	f002 0201 	and.w	r2, r2, #1
 8000efa:	9200      	str	r2, [sp, #0]
 8000efc:	9a00      	ldr	r2, [sp, #0]
 8000efe:	6d9a      	ldr	r2, [r3, #88]	@ 0x58
 8000f00:	f042 5280 	orr.w	r2, r2, #268435456	@ 0x10000000
 8000f04:	659a      	str	r2, [r3, #88]	@ 0x58
 8000f06:	6d9b      	ldr	r3, [r3, #88]	@ 0x58
 8000f08:	f003 5380 	and.w	r3, r3, #268435456	@ 0x10000000
 8000f0c:	9301      	str	r3, [sp, #4]
 8000f0e:	2004      	movs	r0, #4
 8000f10:	9b01      	ldr	r3, [sp, #4]
 8000f12:	f001 faf9 	bl	8002508 <HAL_NVIC_SetPriorityGrouping>
 8000f16:	b003      	add	sp, #12
 8000f18:	f85d eb04 	ldr.w	lr, [sp], #4
 8000f1c:	f001 bf2c 	b.w	8002d78 <HAL_PWREx_DisableUCPDDeadBattery>
 8000f20:	40021000 	.word	0x40021000

08000f24 <HAL_ADC_MspInit>:
 8000f24:	b530      	push	{r4, r5, lr}
 8000f26:	b09f      	sub	sp, #124	@ 0x7c
 8000f28:	4604      	mov	r4, r0
 8000f2a:	2214      	movs	r2, #20
 8000f2c:	2100      	movs	r1, #0
 8000f2e:	a804      	add	r0, sp, #16
 8000f30:	f003 fe15 	bl	8004b5e <memset>
 8000f34:	2254      	movs	r2, #84	@ 0x54
 8000f36:	2100      	movs	r1, #0
 8000f38:	a809      	add	r0, sp, #36	@ 0x24
 8000f3a:	f003 fe10 	bl	8004b5e <memset>
 8000f3e:	6823      	ldr	r3, [r4, #0]
 8000f40:	f1b3 4fa0 	cmp.w	r3, #1342177280	@ 0x50000000
 8000f44:	d13b      	bne.n	8000fbe <HAL_ADC_MspInit+0x9a>
 8000f46:	f44f 4300 	mov.w	r3, #32768	@ 0x8000
 8000f4a:	9309      	str	r3, [sp, #36]	@ 0x24
 8000f4c:	a809      	add	r0, sp, #36	@ 0x24
 8000f4e:	f04f 5300 	mov.w	r3, #536870912	@ 0x20000000
 8000f52:	931a      	str	r3, [sp, #104]	@ 0x68
 8000f54:	f002 fa72 	bl	800343c <HAL_RCCEx_PeriphCLKConfig>
 8000f58:	b108      	cbz	r0, 8000f5e <HAL_ADC_MspInit+0x3a>
 8000f5a:	f7ff fea7 	bl	8000cac <Error_Handler>
 8000f5e:	4b19      	ldr	r3, [pc, #100]	@ (8000fc4 <HAL_ADC_MspInit+0xa0>)
 8000f60:	6cda      	ldr	r2, [r3, #76]	@ 0x4c
 8000f62:	f442 5200 	orr.w	r2, r2, #8192	@ 0x2000
 8000f66:	64da      	str	r2, [r3, #76]	@ 0x4c
 8000f68:	6cda      	ldr	r2, [r3, #76]	@ 0x4c
 8000f6a:	f402 5200 	and.w	r2, r2, #8192	@ 0x2000
 8000f6e:	9201      	str	r2, [sp, #4]
 8000f70:	9a01      	ldr	r2, [sp, #4]
 8000f72:	6cda      	ldr	r2, [r3, #76]	@ 0x4c
 8000f74:	f042 0201 	orr.w	r2, r2, #1
 8000f78:	64da      	str	r2, [r3, #76]	@ 0x4c
 8000f7a:	6cda      	ldr	r2, [r3, #76]	@ 0x4c
 8000f7c:	f002 0201 	and.w	r2, r2, #1
 8000f80:	9202      	str	r2, [sp, #8]
 8000f82:	9a02      	ldr	r2, [sp, #8]
 8000f84:	6cda      	ldr	r2, [r3, #76]	@ 0x4c
 8000f86:	f042 0202 	orr.w	r2, r2, #2
 8000f8a:	64da      	str	r2, [r3, #76]	@ 0x4c
 8000f8c:	6cdb      	ldr	r3, [r3, #76]	@ 0x4c
 8000f8e:	f003 0302 	and.w	r3, r3, #2
 8000f92:	9303      	str	r3, [sp, #12]
 8000f94:	9b03      	ldr	r3, [sp, #12]
 8000f96:	2503      	movs	r5, #3
 8000f98:	230f      	movs	r3, #15
 8000f9a:	2400      	movs	r4, #0
 8000f9c:	a904      	add	r1, sp, #16
 8000f9e:	f04f 4090 	mov.w	r0, #1207959552	@ 0x48000000
 8000fa2:	e9cd 3504 	strd	r3, r5, [sp, #16]
 8000fa6:	9406      	str	r4, [sp, #24]
 8000fa8:	f001 fdb0 	bl	8002b0c <HAL_GPIO_Init>
 8000fac:	f44f 4380 	mov.w	r3, #16384	@ 0x4000
 8000fb0:	4805      	ldr	r0, [pc, #20]	@ (8000fc8 <HAL_ADC_MspInit+0xa4>)
 8000fb2:	9406      	str	r4, [sp, #24]
 8000fb4:	a904      	add	r1, sp, #16
 8000fb6:	e9cd 3504 	strd	r3, r5, [sp, #16]
 8000fba:	f001 fda7 	bl	8002b0c <HAL_GPIO_Init>
 8000fbe:	b01f      	add	sp, #124	@ 0x7c
 8000fc0:	bd30      	pop	{r4, r5, pc}
 8000fc2:	bf00      	nop
 8000fc4:	40021000 	.word	0x40021000
 8000fc8:	48000400 	.word	0x48000400

08000fcc <HAL_FDCAN_MspInit>:
 8000fcc:	b510      	push	{r4, lr}
 8000fce:	b09e      	sub	sp, #120	@ 0x78
 8000fd0:	4604      	mov	r4, r0
 8000fd2:	2214      	movs	r2, #20
 8000fd4:	2100      	movs	r1, #0
 8000fd6:	a804      	add	r0, sp, #16
 8000fd8:	f003 fdc1 	bl	8004b5e <memset>
 8000fdc:	2254      	movs	r2, #84	@ 0x54
 8000fde:	2100      	movs	r1, #0
 8000fe0:	a809      	add	r0, sp, #36	@ 0x24
 8000fe2:	f003 fdbc 	bl	8004b5e <memset>
 8000fe6:	6823      	ldr	r3, [r4, #0]
 8000fe8:	4a46      	ldr	r2, [pc, #280]	@ (8001104 <HAL_FDCAN_MspInit+0x138>)
 8000fea:	4293      	cmp	r3, r2
 8000fec:	d145      	bne.n	800107a <HAL_FDCAN_MspInit+0xae>
 8000fee:	f44f 5380 	mov.w	r3, #4096	@ 0x1000
 8000ff2:	9309      	str	r3, [sp, #36]	@ 0x24
 8000ff4:	a809      	add	r0, sp, #36	@ 0x24
 8000ff6:	f04f 7300 	mov.w	r3, #33554432	@ 0x2000000
 8000ffa:	9317      	str	r3, [sp, #92]	@ 0x5c
 8000ffc:	f002 fa1e 	bl	800343c <HAL_RCCEx_PeriphCLKConfig>
 8001000:	b108      	cbz	r0, 8001006 <HAL_FDCAN_MspInit+0x3a>
 8001002:	f7ff fe53 	bl	8000cac <Error_Handler>
 8001006:	4a40      	ldr	r2, [pc, #256]	@ (8001108 <HAL_FDCAN_MspInit+0x13c>)
 8001008:	6813      	ldr	r3, [r2, #0]
 800100a:	3301      	adds	r3, #1
 800100c:	2b01      	cmp	r3, #1
 800100e:	6013      	str	r3, [r2, #0]
 8001010:	4b3e      	ldr	r3, [pc, #248]	@ (800110c <HAL_FDCAN_MspInit+0x140>)
 8001012:	d108      	bne.n	8001026 <HAL_FDCAN_MspInit+0x5a>
 8001014:	6d9a      	ldr	r2, [r3, #88]	@ 0x58
 8001016:	f042 7200 	orr.w	r2, r2, #33554432	@ 0x2000000
 800101a:	659a      	str	r2, [r3, #88]	@ 0x58
 800101c:	6d9a      	ldr	r2, [r3, #88]	@ 0x58
 800101e:	f002 7200 	and.w	r2, r2, #33554432	@ 0x2000000
 8001022:	9200      	str	r2, [sp, #0]
 8001024:	9a00      	ldr	r2, [sp, #0]
 8001026:	6cda      	ldr	r2, [r3, #76]	@ 0x4c
 8001028:	f042 0201 	orr.w	r2, r2, #1
 800102c:	64da      	str	r2, [r3, #76]	@ 0x4c
 800102e:	6cdb      	ldr	r3, [r3, #76]	@ 0x4c
 8001030:	f003 0301 	and.w	r3, r3, #1
 8001034:	9301      	str	r3, [sp, #4]
 8001036:	9b01      	ldr	r3, [sp, #4]
 8001038:	f44f 50c0 	mov.w	r0, #6144	@ 0x1800
 800103c:	2302      	movs	r3, #2
 800103e:	e9cd 0304 	strd	r0, r3, [sp, #16]
 8001042:	2400      	movs	r4, #0
 8001044:	2309      	movs	r3, #9
 8001046:	a904      	add	r1, sp, #16
 8001048:	f04f 4090 	mov.w	r0, #1207959552	@ 0x48000000
 800104c:	9308      	str	r3, [sp, #32]
 800104e:	e9cd 4406 	strd	r4, r4, [sp, #24]
 8001052:	f001 fd5b 	bl	8002b0c <HAL_GPIO_Init>
 8001056:	4622      	mov	r2, r4
 8001058:	2103      	movs	r1, #3
 800105a:	2015      	movs	r0, #21
 800105c:	f001 fa66 	bl	800252c <HAL_NVIC_SetPriority>
 8001060:	2015      	movs	r0, #21
 8001062:	f001 fa95 	bl	8002590 <HAL_NVIC_EnableIRQ>
 8001066:	2016      	movs	r0, #22
 8001068:	4622      	mov	r2, r4
 800106a:	2103      	movs	r1, #3
 800106c:	f001 fa5e 	bl	800252c <HAL_NVIC_SetPriority>
 8001070:	2016      	movs	r0, #22
 8001072:	f001 fa8d 	bl	8002590 <HAL_NVIC_EnableIRQ>
 8001076:	b01e      	add	sp, #120	@ 0x78
 8001078:	bd10      	pop	{r4, pc}
 800107a:	4a25      	ldr	r2, [pc, #148]	@ (8001110 <HAL_FDCAN_MspInit+0x144>)
 800107c:	4293      	cmp	r3, r2
 800107e:	d1fa      	bne.n	8001076 <HAL_FDCAN_MspInit+0xaa>
 8001080:	f44f 5380 	mov.w	r3, #4096	@ 0x1000
 8001084:	9309      	str	r3, [sp, #36]	@ 0x24
 8001086:	a809      	add	r0, sp, #36	@ 0x24
 8001088:	f04f 7300 	mov.w	r3, #33554432	@ 0x2000000
 800108c:	9317      	str	r3, [sp, #92]	@ 0x5c
 800108e:	f002 f9d5 	bl	800343c <HAL_RCCEx_PeriphCLKConfig>
 8001092:	b108      	cbz	r0, 8001098 <HAL_FDCAN_MspInit+0xcc>
 8001094:	f7ff fe0a 	bl	8000cac <Error_Handler>
 8001098:	4a1b      	ldr	r2, [pc, #108]	@ (8001108 <HAL_FDCAN_MspInit+0x13c>)
 800109a:	6813      	ldr	r3, [r2, #0]
 800109c:	3301      	adds	r3, #1
 800109e:	2b01      	cmp	r3, #1
 80010a0:	6013      	str	r3, [r2, #0]
 80010a2:	4b1a      	ldr	r3, [pc, #104]	@ (800110c <HAL_FDCAN_MspInit+0x140>)
 80010a4:	d108      	bne.n	80010b8 <HAL_FDCAN_MspInit+0xec>
 80010a6:	6d9a      	ldr	r2, [r3, #88]	@ 0x58
 80010a8:	f042 7200 	orr.w	r2, r2, #33554432	@ 0x2000000
 80010ac:	659a      	str	r2, [r3, #88]	@ 0x58
 80010ae:	6d9a      	ldr	r2, [r3, #88]	@ 0x58
 80010b0:	f002 7200 	and.w	r2, r2, #33554432	@ 0x2000000
 80010b4:	9202      	str	r2, [sp, #8]
 80010b6:	9a02      	ldr	r2, [sp, #8]
 80010b8:	6cda      	ldr	r2, [r3, #76]	@ 0x4c
 80010ba:	4816      	ldr	r0, [pc, #88]	@ (8001114 <HAL_FDCAN_MspInit+0x148>)
 80010bc:	f042 0202 	orr.w	r2, r2, #2
 80010c0:	64da      	str	r2, [r3, #76]	@ 0x4c
 80010c2:	6cdb      	ldr	r3, [r3, #76]	@ 0x4c
 80010c4:	f003 0302 	and.w	r3, r3, #2
 80010c8:	9303      	str	r3, [sp, #12]
 80010ca:	f44f 5240 	mov.w	r2, #12288	@ 0x3000
 80010ce:	9b03      	ldr	r3, [sp, #12]
 80010d0:	2302      	movs	r3, #2
 80010d2:	e9cd 2304 	strd	r2, r3, [sp, #16]
 80010d6:	2400      	movs	r4, #0
 80010d8:	2309      	movs	r3, #9
 80010da:	a904      	add	r1, sp, #16
 80010dc:	9308      	str	r3, [sp, #32]
 80010de:	e9cd 4406 	strd	r4, r4, [sp, #24]
 80010e2:	f001 fd13 	bl	8002b0c <HAL_GPIO_Init>
 80010e6:	4622      	mov	r2, r4
 80010e8:	2103      	movs	r1, #3
 80010ea:	2056      	movs	r0, #86	@ 0x56
 80010ec:	f001 fa1e 	bl	800252c <HAL_NVIC_SetPriority>
 80010f0:	2056      	movs	r0, #86	@ 0x56
 80010f2:	f001 fa4d 	bl	8002590 <HAL_NVIC_EnableIRQ>
 80010f6:	2057      	movs	r0, #87	@ 0x57
 80010f8:	4622      	mov	r2, r4
 80010fa:	2103      	movs	r1, #3
 80010fc:	f001 fa16 	bl	800252c <HAL_NVIC_SetPriority>
 8001100:	2057      	movs	r0, #87	@ 0x57
 8001102:	e7b6      	b.n	8001072 <HAL_FDCAN_MspInit+0xa6>
 8001104:	40006400 	.word	0x40006400
 8001108:	200002d4 	.word	0x200002d4
 800110c:	40021000 	.word	0x40021000
 8001110:	40006800 	.word	0x40006800
 8001114:	48000400 	.word	0x48000400

08001118 <HAL_TIM_PWM_MspInit>:
 8001118:	b507      	push	{r0, r1, r2, lr}
 800111a:	4b0e      	ldr	r3, [pc, #56]	@ (8001154 <HAL_TIM_PWM_MspInit+0x3c>)
 800111c:	6802      	ldr	r2, [r0, #0]
 800111e:	429a      	cmp	r2, r3
 8001120:	d115      	bne.n	800114e <HAL_TIM_PWM_MspInit+0x36>
 8001122:	f503 4364 	add.w	r3, r3, #58368	@ 0xe400
 8001126:	2102      	movs	r1, #2
 8001128:	6e1a      	ldr	r2, [r3, #96]	@ 0x60
 800112a:	f442 6200 	orr.w	r2, r2, #2048	@ 0x800
 800112e:	661a      	str	r2, [r3, #96]	@ 0x60
 8001130:	6e1b      	ldr	r3, [r3, #96]	@ 0x60
 8001132:	f403 6300 	and.w	r3, r3, #2048	@ 0x800
 8001136:	9301      	str	r3, [sp, #4]
 8001138:	2200      	movs	r2, #0
 800113a:	201b      	movs	r0, #27
 800113c:	9b01      	ldr	r3, [sp, #4]
 800113e:	f001 f9f5 	bl	800252c <HAL_NVIC_SetPriority>
 8001142:	201b      	movs	r0, #27
 8001144:	b003      	add	sp, #12
 8001146:	f85d eb04 	ldr.w	lr, [sp], #4
 800114a:	f001 ba21 	b.w	8002590 <HAL_NVIC_EnableIRQ>
 800114e:	b003      	add	sp, #12
 8001150:	f85d fb04 	ldr.w	pc, [sp], #4
 8001154:	40012c00 	.word	0x40012c00

08001158 <HAL_TIM_Base_MspInit>:
 8001158:	b507      	push	{r0, r1, r2, lr}
 800115a:	4b0e      	ldr	r3, [pc, #56]	@ (8001194 <HAL_TIM_Base_MspInit+0x3c>)
 800115c:	6802      	ldr	r2, [r0, #0]
 800115e:	429a      	cmp	r2, r3
 8001160:	d115      	bne.n	800118e <HAL_TIM_Base_MspInit+0x36>
 8001162:	f503 3300 	add.w	r3, r3, #131072	@ 0x20000
 8001166:	2102      	movs	r1, #2
 8001168:	6d9a      	ldr	r2, [r3, #88]	@ 0x58
 800116a:	f042 0210 	orr.w	r2, r2, #16
 800116e:	659a      	str	r2, [r3, #88]	@ 0x58
 8001170:	6d9b      	ldr	r3, [r3, #88]	@ 0x58
 8001172:	f003 0310 	and.w	r3, r3, #16
 8001176:	9301      	str	r3, [sp, #4]
 8001178:	2201      	movs	r2, #1
 800117a:	2036      	movs	r0, #54	@ 0x36
 800117c:	9b01      	ldr	r3, [sp, #4]
 800117e:	f001 f9d5 	bl	800252c <HAL_NVIC_SetPriority>
 8001182:	2036      	movs	r0, #54	@ 0x36
 8001184:	b003      	add	sp, #12
 8001186:	f85d eb04 	ldr.w	lr, [sp], #4
 800118a:	f001 ba01 	b.w	8002590 <HAL_NVIC_EnableIRQ>
 800118e:	b003      	add	sp, #12
 8001190:	f85d fb04 	ldr.w	pc, [sp], #4
 8001194:	40001000 	.word	0x40001000

08001198 <HAL_TIM_MspPostInit>:
 8001198:	b570      	push	{r4, r5, r6, lr}
 800119a:	4604      	mov	r4, r0
 800119c:	b088      	sub	sp, #32
 800119e:	2214      	movs	r2, #20
 80011a0:	2100      	movs	r1, #0
 80011a2:	a803      	add	r0, sp, #12
 80011a4:	f003 fcdb 	bl	8004b5e <memset>
 80011a8:	6822      	ldr	r2, [r4, #0]
 80011aa:	4b22      	ldr	r3, [pc, #136]	@ (8001234 <HAL_TIM_MspPostInit+0x9c>)
 80011ac:	429a      	cmp	r2, r3
 80011ae:	d13f      	bne.n	8001230 <HAL_TIM_MspPostInit+0x98>
 80011b0:	f503 4364 	add.w	r3, r3, #58368	@ 0xe400
 80011b4:	2502      	movs	r5, #2
 80011b6:	6cda      	ldr	r2, [r3, #76]	@ 0x4c
 80011b8:	481f      	ldr	r0, [pc, #124]	@ (8001238 <HAL_TIM_MspPostInit+0xa0>)
 80011ba:	f042 0204 	orr.w	r2, r2, #4
 80011be:	64da      	str	r2, [r3, #76]	@ 0x4c
 80011c0:	6cda      	ldr	r2, [r3, #76]	@ 0x4c
 80011c2:	f002 0204 	and.w	r2, r2, #4
 80011c6:	9200      	str	r2, [sp, #0]
 80011c8:	9a00      	ldr	r2, [sp, #0]
 80011ca:	6cda      	ldr	r2, [r3, #76]	@ 0x4c
 80011cc:	f042 0202 	orr.w	r2, r2, #2
 80011d0:	64da      	str	r2, [r3, #76]	@ 0x4c
 80011d2:	6cda      	ldr	r2, [r3, #76]	@ 0x4c
 80011d4:	f002 0202 	and.w	r2, r2, #2
 80011d8:	9201      	str	r2, [sp, #4]
 80011da:	9a01      	ldr	r2, [sp, #4]
 80011dc:	6cda      	ldr	r2, [r3, #76]	@ 0x4c
 80011de:	f042 0201 	orr.w	r2, r2, #1
 80011e2:	64da      	str	r2, [r3, #76]	@ 0x4c
 80011e4:	6cdb      	ldr	r3, [r3, #76]	@ 0x4c
 80011e6:	f003 0301 	and.w	r3, r3, #1
 80011ea:	9302      	str	r3, [sp, #8]
 80011ec:	9b02      	ldr	r3, [sp, #8]
 80011ee:	f44f 5300 	mov.w	r3, #8192	@ 0x2000
 80011f2:	e9cd 3503 	strd	r3, r5, [sp, #12]
 80011f6:	a903      	add	r1, sp, #12
 80011f8:	2304      	movs	r3, #4
 80011fa:	9307      	str	r3, [sp, #28]
 80011fc:	2400      	movs	r4, #0
 80011fe:	f001 fc85 	bl	8002b0c <HAL_GPIO_Init>
 8001202:	2606      	movs	r6, #6
 8001204:	2301      	movs	r3, #1
 8001206:	480d      	ldr	r0, [pc, #52]	@ (800123c <HAL_TIM_MspPostInit+0xa4>)
 8001208:	9607      	str	r6, [sp, #28]
 800120a:	a903      	add	r1, sp, #12
 800120c:	e9cd 3503 	strd	r3, r5, [sp, #12]
 8001210:	e9cd 4405 	strd	r4, r4, [sp, #20]
 8001214:	f001 fc7a 	bl	8002b0c <HAL_GPIO_Init>
 8001218:	f44f 7340 	mov.w	r3, #768	@ 0x300
 800121c:	a903      	add	r1, sp, #12
 800121e:	f04f 4090 	mov.w	r0, #1207959552	@ 0x48000000
 8001222:	e9cd 3503 	strd	r3, r5, [sp, #12]
 8001226:	e9cd 4405 	strd	r4, r4, [sp, #20]
 800122a:	9607      	str	r6, [sp, #28]
 800122c:	f001 fc6e 	bl	8002b0c <HAL_GPIO_Init>
 8001230:	b008      	add	sp, #32
 8001232:	bd70      	pop	{r4, r5, r6, pc}
 8001234:	40012c00 	.word	0x40012c00
 8001238:	48000800 	.word	0x48000800
 800123c:	48000400 	.word	0x48000400

08001240 <HAL_UART_MspInit>:
 8001240:	b510      	push	{r4, lr}
 8001242:	b09c      	sub	sp, #112	@ 0x70
 8001244:	4604      	mov	r4, r0
 8001246:	2214      	movs	r2, #20
 8001248:	2100      	movs	r1, #0
 800124a:	a802      	add	r0, sp, #8
 800124c:	f003 fc87 	bl	8004b5e <memset>
 8001250:	2254      	movs	r2, #84	@ 0x54
 8001252:	2100      	movs	r1, #0
 8001254:	a807      	add	r0, sp, #28
 8001256:	f003 fc82 	bl	8004b5e <memset>
 800125a:	6822      	ldr	r2, [r4, #0]
 800125c:	4b16      	ldr	r3, [pc, #88]	@ (80012b8 <HAL_UART_MspInit+0x78>)
 800125e:	429a      	cmp	r2, r3
 8001260:	d128      	bne.n	80012b4 <HAL_UART_MspInit+0x74>
 8001262:	2304      	movs	r3, #4
 8001264:	a807      	add	r0, sp, #28
 8001266:	9307      	str	r3, [sp, #28]
 8001268:	f002 f8e8 	bl	800343c <HAL_RCCEx_PeriphCLKConfig>
 800126c:	b108      	cbz	r0, 8001272 <HAL_UART_MspInit+0x32>
 800126e:	f7ff fd1d 	bl	8000cac <Error_Handler>
 8001272:	4b12      	ldr	r3, [pc, #72]	@ (80012bc <HAL_UART_MspInit+0x7c>)
 8001274:	4812      	ldr	r0, [pc, #72]	@ (80012c0 <HAL_UART_MspInit+0x80>)
 8001276:	6d9a      	ldr	r2, [r3, #88]	@ 0x58
 8001278:	f442 2280 	orr.w	r2, r2, #262144	@ 0x40000
 800127c:	659a      	str	r2, [r3, #88]	@ 0x58
 800127e:	6d9a      	ldr	r2, [r3, #88]	@ 0x58
 8001280:	f402 2280 	and.w	r2, r2, #262144	@ 0x40000
 8001284:	9200      	str	r2, [sp, #0]
 8001286:	9a00      	ldr	r2, [sp, #0]
 8001288:	6cda      	ldr	r2, [r3, #76]	@ 0x4c
 800128a:	f042 0202 	orr.w	r2, r2, #2
 800128e:	64da      	str	r2, [r3, #76]	@ 0x4c
 8001290:	6cdb      	ldr	r3, [r3, #76]	@ 0x4c
 8001292:	f003 0302 	and.w	r3, r3, #2
 8001296:	9301      	str	r3, [sp, #4]
 8001298:	9b01      	ldr	r3, [sp, #4]
 800129a:	f44f 6240 	mov.w	r2, #3072	@ 0xc00
 800129e:	2302      	movs	r3, #2
 80012a0:	e9cd 2302 	strd	r2, r3, [sp, #8]
 80012a4:	2300      	movs	r3, #0
 80012a6:	e9cd 3304 	strd	r3, r3, [sp, #16]
 80012aa:	a902      	add	r1, sp, #8
 80012ac:	2307      	movs	r3, #7
 80012ae:	9306      	str	r3, [sp, #24]
 80012b0:	f001 fc2c 	bl	8002b0c <HAL_GPIO_Init>
 80012b4:	b01c      	add	sp, #112	@ 0x70
 80012b6:	bd10      	pop	{r4, pc}
 80012b8:	40004800 	.word	0x40004800
 80012bc:	40021000 	.word	0x40021000
 80012c0:	48000400 	.word	0x48000400

080012c4 <NMI_Handler>:
 80012c4:	e7fe      	b.n	80012c4 <NMI_Handler>

080012c6 <HardFault_Handler>:
 80012c6:	e7fe      	b.n	80012c6 <HardFault_Handler>

080012c8 <MemManage_Handler>:
 80012c8:	e7fe      	b.n	80012c8 <MemManage_Handler>

080012ca <BusFault_Handler>:
 80012ca:	e7fe      	b.n	80012ca <BusFault_Handler>

080012cc <UsageFault_Handler>:
 80012cc:	e7fe      	b.n	80012cc <UsageFault_Handler>

080012ce <SVC_Handler>:
 80012ce:	4770      	bx	lr

080012d0 <DebugMon_Handler>:
 80012d0:	4770      	bx	lr

080012d2 <PendSV_Handler>:
 80012d2:	4770      	bx	lr

080012d4 <SysTick_Handler>:
 80012d4:	f000 b886 	b.w	80013e4 <HAL_IncTick>

080012d8 <FDCAN1_IT0_IRQHandler>:
 80012d8:	4801      	ldr	r0, [pc, #4]	@ (80012e0 <FDCAN1_IT0_IRQHandler+0x8>)
 80012da:	f001 bb67 	b.w	80029ac <HAL_FDCAN_IRQHandler>
 80012de:	bf00      	nop
 80012e0:	200001ec 	.word	0x200001ec

080012e4 <FDCAN1_IT1_IRQHandler>:
 80012e4:	f7ff bff8 	b.w	80012d8 <FDCAN1_IT0_IRQHandler>

080012e8 <TIM1_CC_IRQHandler>:
 80012e8:	4801      	ldr	r0, [pc, #4]	@ (80012f0 <TIM1_CC_IRQHandler+0x8>)
 80012ea:	f002 bb97 	b.w	8003a1c <HAL_TIM_IRQHandler>
 80012ee:	bf00      	nop
 80012f0:	2000013c 	.word	0x2000013c

080012f4 <TIM6_DAC_IRQHandler>:
 80012f4:	4801      	ldr	r0, [pc, #4]	@ (80012fc <TIM6_DAC_IRQHandler+0x8>)
 80012f6:	f002 bb91 	b.w	8003a1c <HAL_TIM_IRQHandler>
 80012fa:	bf00      	nop
 80012fc:	200000f0 	.word	0x200000f0

08001300 <FDCAN2_IT0_IRQHandler>:
 8001300:	4801      	ldr	r0, [pc, #4]	@ (8001308 <FDCAN2_IT0_IRQHandler+0x8>)
 8001302:	f001 bb53 	b.w	80029ac <HAL_FDCAN_IRQHandler>
 8001306:	bf00      	nop
 8001308:	20000188 	.word	0x20000188

0800130c <FDCAN2_IT1_IRQHandler>:
 800130c:	f7ff bff8 	b.w	8001300 <FDCAN2_IT0_IRQHandler>

08001310 <SystemInit>:
 8001310:	4a03      	ldr	r2, [pc, #12]	@ (8001320 <SystemInit+0x10>)
 8001312:	f8d2 3088 	ldr.w	r3, [r2, #136]	@ 0x88
 8001316:	f443 0370 	orr.w	r3, r3, #15728640	@ 0xf00000
 800131a:	f8c2 3088 	str.w	r3, [r2, #136]	@ 0x88
 800131e:	4770      	bx	lr
 8001320:	e000ed00 	.word	0xe000ed00

08001324 <Reset_Handler>:
 8001324:	480d      	ldr	r0, [pc, #52]	@ (800135c <LoopForever+0x2>)
 8001326:	4685      	mov	sp, r0
 8001328:	f7ff fff2 	bl	8001310 <SystemInit>
 800132c:	480c      	ldr	r0, [pc, #48]	@ (8001360 <LoopForever+0x6>)
 800132e:	490d      	ldr	r1, [pc, #52]	@ (8001364 <LoopForever+0xa>)
 8001330:	4a0d      	ldr	r2, [pc, #52]	@ (8001368 <LoopForever+0xe>)
 8001332:	2300      	movs	r3, #0
 8001334:	e002      	b.n	800133c <LoopCopyDataInit>

08001336 <CopyDataInit>:
 8001336:	58d4      	ldr	r4, [r2, r3]
 8001338:	50c4      	str	r4, [r0, r3]
 800133a:	3304      	adds	r3, #4

0800133c <LoopCopyDataInit>:
 800133c:	18c4      	adds	r4, r0, r3
 800133e:	428c      	cmp	r4, r1
 8001340:	d3f9      	bcc.n	8001336 <CopyDataInit>
 8001342:	4a0a      	ldr	r2, [pc, #40]	@ (800136c <LoopForever+0x12>)
 8001344:	4c0a      	ldr	r4, [pc, #40]	@ (8001370 <LoopForever+0x16>)
 8001346:	2300      	movs	r3, #0
 8001348:	e001      	b.n	800134e <LoopFillZerobss>

0800134a <FillZerobss>:
 800134a:	6013      	str	r3, [r2, #0]
 800134c:	3204      	adds	r2, #4

0800134e <LoopFillZerobss>:
 800134e:	42a2      	cmp	r2, r4
 8001350:	d3fb      	bcc.n	800134a <FillZerobss>
 8001352:	f003 fc0d 	bl	8004b70 <__libc_init_array>
 8001356:	f7ff fab3 	bl	80008c0 <main>

0800135a <LoopForever>:
 800135a:	e7fe      	b.n	800135a <LoopForever>
 800135c:	20020000 	.word	0x20020000
 8001360:	20000000 	.word	0x20000000
 8001364:	2000001c 	.word	0x2000001c
 8001368:	08004c38 	.word	0x08004c38
 800136c:	2000001c 	.word	0x2000001c
 8001370:	200002dc 	.word	0x200002dc

08001374 <ADC1_2_IRQHandler>:
 8001374:	e7fe      	b.n	8001374 <ADC1_2_IRQHandler>
	...

08001378 <HAL_InitTick>:
 8001378:	b538      	push	{r3, r4, r5, lr}
 800137a:	4b0f      	ldr	r3, [pc, #60]	@ (80013b8 <HAL_InitTick+0x40>)
 800137c:	681a      	ldr	r2, [r3, #0]
 800137e:	4605      	mov	r5, r0
 8001380:	b90a      	cbnz	r2, 8001386 <HAL_InitTick+0xe>
 8001382:	2001      	movs	r0, #1
 8001384:	bd38      	pop	{r3, r4, r5, pc}
 8001386:	f44f 737a 	mov.w	r3, #1000	@ 0x3e8
 800138a:	fbb3 f3f2 	udiv	r3, r3, r2
 800138e:	4a0b      	ldr	r2, [pc, #44]	@ (80013bc <HAL_InitTick+0x44>)
 8001390:	6810      	ldr	r0, [r2, #0]
 8001392:	fbb0 f0f3 	udiv	r0, r0, r3
 8001396:	f001 f909 	bl	80025ac <HAL_SYSTICK_Config>
 800139a:	4604      	mov	r4, r0
 800139c:	2800      	cmp	r0, #0
 800139e:	d1f0      	bne.n	8001382 <HAL_InitTick+0xa>
 80013a0:	2d0f      	cmp	r5, #15
 80013a2:	d8ee      	bhi.n	8001382 <HAL_InitTick+0xa>
 80013a4:	4602      	mov	r2, r0
 80013a6:	4629      	mov	r1, r5
 80013a8:	f04f 30ff 	mov.w	r0, #4294967295
 80013ac:	f001 f8be 	bl	800252c <HAL_NVIC_SetPriority>
 80013b0:	4b03      	ldr	r3, [pc, #12]	@ (80013c0 <HAL_InitTick+0x48>)
 80013b2:	4620      	mov	r0, r4
 80013b4:	601d      	str	r5, [r3, #0]
 80013b6:	e7e5      	b.n	8001384 <HAL_InitTick+0xc>
 80013b8:	20000014 	.word	0x20000014
 80013bc:	20000010 	.word	0x20000010
 80013c0:	20000018 	.word	0x20000018

080013c4 <HAL_Init>:
 80013c4:	b510      	push	{r4, lr}
 80013c6:	2003      	movs	r0, #3
 80013c8:	f001 f89e 	bl	8002508 <HAL_NVIC_SetPriorityGrouping>
 80013cc:	2007      	movs	r0, #7
 80013ce:	f7ff ffd3 	bl	8001378 <HAL_InitTick>
 80013d2:	4604      	mov	r4, r0
 80013d4:	b918      	cbnz	r0, 80013de <HAL_Init+0x1a>
 80013d6:	f7ff fd87 	bl	8000ee8 <HAL_MspInit>
 80013da:	4620      	mov	r0, r4
 80013dc:	bd10      	pop	{r4, pc}
 80013de:	2401      	movs	r4, #1
 80013e0:	e7fb      	b.n	80013da <HAL_Init+0x16>
	...

080013e4 <HAL_IncTick>:
 80013e4:	4a03      	ldr	r2, [pc, #12]	@ (80013f4 <HAL_IncTick+0x10>)
 80013e6:	4904      	ldr	r1, [pc, #16]	@ (80013f8 <HAL_IncTick+0x14>)
 80013e8:	6813      	ldr	r3, [r2, #0]
 80013ea:	6809      	ldr	r1, [r1, #0]
 80013ec:	440b      	add	r3, r1
 80013ee:	6013      	str	r3, [r2, #0]
 80013f0:	4770      	bx	lr
 80013f2:	bf00      	nop
 80013f4:	200002d8 	.word	0x200002d8
 80013f8:	20000014 	.word	0x20000014

080013fc <HAL_GetTick>:
 80013fc:	4b01      	ldr	r3, [pc, #4]	@ (8001404 <HAL_GetTick+0x8>)
 80013fe:	6818      	ldr	r0, [r3, #0]
 8001400:	4770      	bx	lr
 8001402:	bf00      	nop
 8001404:	200002d8 	.word	0x200002d8

08001408 <HAL_Delay>:
 8001408:	b538      	push	{r3, r4, r5, lr}
 800140a:	4604      	mov	r4, r0
 800140c:	f7ff fff6 	bl	80013fc <HAL_GetTick>
 8001410:	1c63      	adds	r3, r4, #1
 8001412:	bf1c      	itt	ne
 8001414:	4b05      	ldrne	r3, [pc, #20]	@ (800142c <HAL_Delay+0x24>)
 8001416:	681b      	ldrne	r3, [r3, #0]
 8001418:	4605      	mov	r5, r0
 800141a:	bf18      	it	ne
 800141c:	18e4      	addne	r4, r4, r3
 800141e:	f7ff ffed 	bl	80013fc <HAL_GetTick>
 8001422:	1b43      	subs	r3, r0, r5
 8001424:	42a3      	cmp	r3, r4
 8001426:	d3fa      	bcc.n	800141e <HAL_Delay+0x16>
 8001428:	bd38      	pop	{r3, r4, r5, pc}
 800142a:	bf00      	nop
 800142c:	20000014 	.word	0x20000014

08001430 <LL_ADC_SetChannelSamplingTime>:
 8001430:	b530      	push	{r4, r5, lr}
 8001432:	0dcc      	lsrs	r4, r1, #23
 8001434:	f004 0404 	and.w	r4, r4, #4
 8001438:	3014      	adds	r0, #20
 800143a:	f3c1 5104 	ubfx	r1, r1, #20, #5
 800143e:	5903      	ldr	r3, [r0, r4]
 8001440:	2507      	movs	r5, #7
 8001442:	408d      	lsls	r5, r1
 8001444:	ea23 0305 	bic.w	r3, r3, r5
 8001448:	408a      	lsls	r2, r1
 800144a:	4313      	orrs	r3, r2
 800144c:	5103      	str	r3, [r0, r4]
 800144e:	bd30      	pop	{r4, r5, pc}

08001450 <LL_ADC_IsEnabled>:
 8001450:	6880      	ldr	r0, [r0, #8]
 8001452:	f000 0001 	and.w	r0, r0, #1
 8001456:	4770      	bx	lr

08001458 <LL_ADC_REG_IsConversionOngoing>:
 8001458:	6880      	ldr	r0, [r0, #8]
 800145a:	f3c0 0080 	ubfx	r0, r0, #2, #1
 800145e:	4770      	bx	lr

08001460 <HAL_ADC_Init>:
 8001460:	b537      	push	{r0, r1, r2, r4, r5, lr}
 8001462:	2300      	movs	r3, #0
 8001464:	9301      	str	r3, [sp, #4]
 8001466:	4604      	mov	r4, r0
 8001468:	2800      	cmp	r0, #0
 800146a:	f000 80f4 	beq.w	8001656 <HAL_ADC_Init+0x1f6>
 800146e:	6dc5      	ldr	r5, [r0, #92]	@ 0x5c
 8001470:	b925      	cbnz	r5, 800147c <HAL_ADC_Init+0x1c>
 8001472:	f7ff fd57 	bl	8000f24 <HAL_ADC_MspInit>
 8001476:	6625      	str	r5, [r4, #96]	@ 0x60
 8001478:	f884 5058 	strb.w	r5, [r4, #88]	@ 0x58
 800147c:	6823      	ldr	r3, [r4, #0]
 800147e:	689a      	ldr	r2, [r3, #8]
 8001480:	0095      	lsls	r5, r2, #2
 8001482:	bf41      	itttt	mi
 8001484:	689a      	ldrmi	r2, [r3, #8]
 8001486:	f022 4220 	bicmi.w	r2, r2, #2684354560	@ 0xa0000000
 800148a:	f022 023f 	bicmi.w	r2, r2, #63	@ 0x3f
 800148e:	609a      	strmi	r2, [r3, #8]
 8001490:	689a      	ldr	r2, [r3, #8]
 8001492:	00d0      	lsls	r0, r2, #3
 8001494:	f140 809f 	bpl.w	80015d6 <HAL_ADC_Init+0x176>
 8001498:	689a      	ldr	r2, [r3, #8]
 800149a:	00d1      	lsls	r1, r2, #3
 800149c:	f100 80b2 	bmi.w	8001604 <HAL_ADC_Init+0x1a4>
 80014a0:	6de2      	ldr	r2, [r4, #92]	@ 0x5c
 80014a2:	f042 0210 	orr.w	r2, r2, #16
 80014a6:	65e2      	str	r2, [r4, #92]	@ 0x5c
 80014a8:	6e22      	ldr	r2, [r4, #96]	@ 0x60
 80014aa:	f042 0201 	orr.w	r2, r2, #1
 80014ae:	6622      	str	r2, [r4, #96]	@ 0x60
 80014b0:	2101      	movs	r1, #1
 80014b2:	4618      	mov	r0, r3
 80014b4:	f7ff ffd0 	bl	8001458 <LL_ADC_REG_IsConversionOngoing>
 80014b8:	6de2      	ldr	r2, [r4, #92]	@ 0x5c
 80014ba:	f002 0210 	and.w	r2, r2, #16
 80014be:	4302      	orrs	r2, r0
 80014c0:	f040 80c5 	bne.w	800164e <HAL_ADC_Init+0x1ee>
 80014c4:	6de2      	ldr	r2, [r4, #92]	@ 0x5c
 80014c6:	f422 7281 	bic.w	r2, r2, #258	@ 0x102
 80014ca:	f042 0202 	orr.w	r2, r2, #2
 80014ce:	65e2      	str	r2, [r4, #92]	@ 0x5c
 80014d0:	4618      	mov	r0, r3
 80014d2:	f7ff ffbd 	bl	8001450 <LL_ADC_IsEnabled>
 80014d6:	b988      	cbnz	r0, 80014fc <HAL_ADC_Init+0x9c>
 80014d8:	f1b3 4fa0 	cmp.w	r3, #1342177280	@ 0x50000000
 80014dc:	d003      	beq.n	80014e6 <HAL_ADC_Init+0x86>
 80014de:	4a5f      	ldr	r2, [pc, #380]	@ (800165c <HAL_ADC_Init+0x1fc>)
 80014e0:	4293      	cmp	r3, r2
 80014e2:	f040 8091 	bne.w	8001608 <HAL_ADC_Init+0x1a8>
 80014e6:	f04f 40a0 	mov.w	r0, #1342177280	@ 0x50000000
 80014ea:	f7ff ffb1 	bl	8001450 <LL_ADC_IsEnabled>
 80014ee:	4602      	mov	r2, r0
 80014f0:	485a      	ldr	r0, [pc, #360]	@ (800165c <HAL_ADC_Init+0x1fc>)
 80014f2:	f7ff ffad 	bl	8001450 <LL_ADC_IsEnabled>
 80014f6:	4302      	orrs	r2, r0
 80014f8:	f000 809c 	beq.w	8001634 <HAL_ADC_Init+0x1d4>
 80014fc:	68e5      	ldr	r5, [r4, #12]
 80014fe:	6be2      	ldr	r2, [r4, #60]	@ 0x3c
 8001500:	f894 0024 	ldrb.w	r0, [r4, #36]	@ 0x24
 8001504:	432a      	orrs	r2, r5
 8001506:	68a5      	ldr	r5, [r4, #8]
 8001508:	432a      	orrs	r2, r5
 800150a:	7f65      	ldrb	r5, [r4, #29]
 800150c:	2801      	cmp	r0, #1
 800150e:	ea42 3245 	orr.w	r2, r2, r5, lsl #13
 8001512:	ea42 4200 	orr.w	r2, r2, r0, lsl #16
 8001516:	bf02      	ittt	eq
 8001518:	6aa0      	ldreq	r0, [r4, #40]	@ 0x28
 800151a:	f100 30ff 	addeq.w	r0, r0, #4294967295
 800151e:	ea42 4240 	orreq.w	r2, r2, r0, lsl #17
 8001522:	6ae0      	ldr	r0, [r4, #44]	@ 0x2c
 8001524:	b120      	cbz	r0, 8001530 <HAL_ADC_Init+0xd0>
 8001526:	6b25      	ldr	r5, [r4, #48]	@ 0x30
 8001528:	f400 7078 	and.w	r0, r0, #992	@ 0x3e0
 800152c:	4328      	orrs	r0, r5
 800152e:	4302      	orrs	r2, r0
 8001530:	68dd      	ldr	r5, [r3, #12]
 8001532:	484b      	ldr	r0, [pc, #300]	@ (8001660 <HAL_ADC_Init+0x200>)
 8001534:	4028      	ands	r0, r5
 8001536:	4310      	orrs	r0, r2
 8001538:	60d8      	str	r0, [r3, #12]
 800153a:	691a      	ldr	r2, [r3, #16]
 800153c:	6b60      	ldr	r0, [r4, #52]	@ 0x34
 800153e:	f022 6240 	bic.w	r2, r2, #201326592	@ 0xc000000
 8001542:	4302      	orrs	r2, r0
 8001544:	611a      	str	r2, [r3, #16]
 8001546:	689a      	ldr	r2, [r3, #8]
 8001548:	0712      	lsls	r2, r2, #28
 800154a:	d42c      	bmi.n	80015a6 <HAL_ADC_Init+0x146>
 800154c:	68d8      	ldr	r0, [r3, #12]
 800154e:	f894 2038 	ldrb.w	r2, [r4, #56]	@ 0x38
 8001552:	7f25      	ldrb	r5, [r4, #28]
 8001554:	0052      	lsls	r2, r2, #1
 8001556:	f420 4080 	bic.w	r0, r0, #16384	@ 0x4000
 800155a:	ea42 3285 	orr.w	r2, r2, r5, lsl #14
 800155e:	f020 0002 	bic.w	r0, r0, #2
 8001562:	4302      	orrs	r2, r0
 8001564:	6925      	ldr	r5, [r4, #16]
 8001566:	60da      	str	r2, [r3, #12]
 8001568:	483e      	ldr	r0, [pc, #248]	@ (8001664 <HAL_ADC_Init+0x204>)
 800156a:	691a      	ldr	r2, [r3, #16]
 800156c:	2d00      	cmp	r5, #0
 800156e:	d063      	beq.n	8001638 <HAL_ADC_Init+0x1d8>
 8001570:	f442 3280 	orr.w	r2, r2, #65536	@ 0x10000
 8001574:	611a      	str	r2, [r3, #16]
 8001576:	f8d3 20c0 	ldr.w	r2, [r3, #192]	@ 0xc0
 800157a:	4002      	ands	r2, r0
 800157c:	432a      	orrs	r2, r5
 800157e:	f8c3 20c0 	str.w	r2, [r3, #192]	@ 0xc0
 8001582:	f894 2040 	ldrb.w	r2, [r4, #64]	@ 0x40
 8001586:	2a01      	cmp	r2, #1
 8001588:	d15d      	bne.n	8001646 <HAL_ADC_Init+0x1e6>
 800158a:	e9d4 2511 	ldrd	r2, r5, [r4, #68]	@ 0x44
 800158e:	6918      	ldr	r0, [r3, #16]
 8001590:	432a      	orrs	r2, r5
 8001592:	f36f 008a 	bfc	r0, #2, #9
 8001596:	4302      	orrs	r2, r0
 8001598:	6ce0      	ldr	r0, [r4, #76]	@ 0x4c
 800159a:	4302      	orrs	r2, r0
 800159c:	6d20      	ldr	r0, [r4, #80]	@ 0x50
 800159e:	4302      	orrs	r2, r0
 80015a0:	f042 0201 	orr.w	r2, r2, #1
 80015a4:	611a      	str	r2, [r3, #16]
 80015a6:	6962      	ldr	r2, [r4, #20]
 80015a8:	2a01      	cmp	r2, #1
 80015aa:	bf05      	ittet	eq
 80015ac:	6b18      	ldreq	r0, [r3, #48]	@ 0x30
 80015ae:	6a22      	ldreq	r2, [r4, #32]
 80015b0:	6b1a      	ldrne	r2, [r3, #48]	@ 0x30
 80015b2:	f102 32ff 	addeq.w	r2, r2, #4294967295
 80015b6:	bf06      	itte	eq
 80015b8:	f020 000f 	biceq.w	r0, r0, #15
 80015bc:	4302      	orreq	r2, r0
 80015be:	f022 020f 	bicne.w	r2, r2, #15
 80015c2:	631a      	str	r2, [r3, #48]	@ 0x30
 80015c4:	6de3      	ldr	r3, [r4, #92]	@ 0x5c
 80015c6:	f023 0303 	bic.w	r3, r3, #3
 80015ca:	f043 0301 	orr.w	r3, r3, #1
 80015ce:	65e3      	str	r3, [r4, #92]	@ 0x5c
 80015d0:	4608      	mov	r0, r1
 80015d2:	b003      	add	sp, #12
 80015d4:	bd30      	pop	{r4, r5, pc}
 80015d6:	689a      	ldr	r2, [r3, #8]
 80015d8:	4923      	ldr	r1, [pc, #140]	@ (8001668 <HAL_ADC_Init+0x208>)
 80015da:	f022 4210 	bic.w	r2, r2, #2415919104	@ 0x90000000
 80015de:	f022 023f 	bic.w	r2, r2, #63	@ 0x3f
 80015e2:	f042 5280 	orr.w	r2, r2, #268435456	@ 0x10000000
 80015e6:	609a      	str	r2, [r3, #8]
 80015e8:	4a20      	ldr	r2, [pc, #128]	@ (800166c <HAL_ADC_Init+0x20c>)
 80015ea:	6812      	ldr	r2, [r2, #0]
 80015ec:	fbb2 f2f1 	udiv	r2, r2, r1
 80015f0:	3201      	adds	r2, #1
 80015f2:	0052      	lsls	r2, r2, #1
 80015f4:	9201      	str	r2, [sp, #4]
 80015f6:	9a01      	ldr	r2, [sp, #4]
 80015f8:	2a00      	cmp	r2, #0
 80015fa:	f43f af4d 	beq.w	8001498 <HAL_ADC_Init+0x38>
 80015fe:	9a01      	ldr	r2, [sp, #4]
 8001600:	3a01      	subs	r2, #1
 8001602:	e7f7      	b.n	80015f4 <HAL_ADC_Init+0x194>
 8001604:	2100      	movs	r1, #0
 8001606:	e754      	b.n	80014b2 <HAL_ADC_Init+0x52>
 8001608:	4819      	ldr	r0, [pc, #100]	@ (8001670 <HAL_ADC_Init+0x210>)
 800160a:	f7ff ff21 	bl	8001450 <LL_ADC_IsEnabled>
 800160e:	4602      	mov	r2, r0
 8001610:	4818      	ldr	r0, [pc, #96]	@ (8001674 <HAL_ADC_Init+0x214>)
 8001612:	f7ff ff1d 	bl	8001450 <LL_ADC_IsEnabled>
 8001616:	4302      	orrs	r2, r0
 8001618:	4817      	ldr	r0, [pc, #92]	@ (8001678 <HAL_ADC_Init+0x218>)
 800161a:	f7ff ff19 	bl	8001450 <LL_ADC_IsEnabled>
 800161e:	4302      	orrs	r2, r0
 8001620:	f47f af6c 	bne.w	80014fc <HAL_ADC_Init+0x9c>
 8001624:	4815      	ldr	r0, [pc, #84]	@ (800167c <HAL_ADC_Init+0x21c>)
 8001626:	6882      	ldr	r2, [r0, #8]
 8001628:	6865      	ldr	r5, [r4, #4]
 800162a:	f422 127c 	bic.w	r2, r2, #4128768	@ 0x3f0000
 800162e:	432a      	orrs	r2, r5
 8001630:	6082      	str	r2, [r0, #8]
 8001632:	e763      	b.n	80014fc <HAL_ADC_Init+0x9c>
 8001634:	4812      	ldr	r0, [pc, #72]	@ (8001680 <HAL_ADC_Init+0x220>)
 8001636:	e7f6      	b.n	8001626 <HAL_ADC_Init+0x1c6>
 8001638:	f422 3280 	bic.w	r2, r2, #65536	@ 0x10000
 800163c:	611a      	str	r2, [r3, #16]
 800163e:	f8d3 20c0 	ldr.w	r2, [r3, #192]	@ 0xc0
 8001642:	4002      	ands	r2, r0
 8001644:	e79b      	b.n	800157e <HAL_ADC_Init+0x11e>
 8001646:	691a      	ldr	r2, [r3, #16]
 8001648:	f022 0201 	bic.w	r2, r2, #1
 800164c:	e7aa      	b.n	80015a4 <HAL_ADC_Init+0x144>
 800164e:	6de3      	ldr	r3, [r4, #92]	@ 0x5c
 8001650:	f043 0310 	orr.w	r3, r3, #16
 8001654:	65e3      	str	r3, [r4, #92]	@ 0x5c
 8001656:	2101      	movs	r1, #1
 8001658:	e7ba      	b.n	80015d0 <HAL_ADC_Init+0x170>
 800165a:	bf00      	nop
 800165c:	50000100 	.word	0x50000100
 8001660:	fff04007 	.word	0xfff04007
 8001664:	ffffc000 	.word	0xffffc000
 8001668:	00030d40 	.word	0x00030d40
 800166c:	20000010 	.word	0x20000010
 8001670:	50000400 	.word	0x50000400
 8001674:	50000500 	.word	0x50000500
 8001678:	50000600 	.word	0x50000600
 800167c:	50000700 	.word	0x50000700
 8001680:	50000300 	.word	0x50000300

08001684 <HAL_ADC_PollForConversion>:
 8001684:	6803      	ldr	r3, [r0, #0]
 8001686:	f1b3 4fa0 	cmp.w	r3, #1342177280	@ 0x50000000
 800168a:	e92d 41f0 	stmdb	sp!, {r4, r5, r6, r7, r8, lr}
 800168e:	4604      	mov	r4, r0
 8001690:	460e      	mov	r6, r1
 8001692:	d01b      	beq.n	80016cc <HAL_ADC_PollForConversion+0x48>
 8001694:	483f      	ldr	r0, [pc, #252]	@ (8001794 <HAL_ADC_PollForConversion+0x110>)
 8001696:	4a40      	ldr	r2, [pc, #256]	@ (8001798 <HAL_ADC_PollForConversion+0x114>)
 8001698:	4940      	ldr	r1, [pc, #256]	@ (800179c <HAL_ADC_PollForConversion+0x118>)
 800169a:	4283      	cmp	r3, r0
 800169c:	bf18      	it	ne
 800169e:	460a      	movne	r2, r1
 80016a0:	69a5      	ldr	r5, [r4, #24]
 80016a2:	6897      	ldr	r7, [r2, #8]
 80016a4:	2d08      	cmp	r5, #8
 80016a6:	f007 071f 	and.w	r7, r7, #31
 80016aa:	d021      	beq.n	80016f0 <HAL_ADC_PollForConversion+0x6c>
 80016ac:	f240 2221 	movw	r2, #545	@ 0x221
 80016b0:	40fa      	lsrs	r2, r7
 80016b2:	07d0      	lsls	r0, r2, #31
 80016b4:	d50c      	bpl.n	80016d0 <HAL_ADC_PollForConversion+0x4c>
 80016b6:	68db      	ldr	r3, [r3, #12]
 80016b8:	f013 0f01 	tst.w	r3, #1
 80016bc:	d017      	beq.n	80016ee <HAL_ADC_PollForConversion+0x6a>
 80016be:	6de3      	ldr	r3, [r4, #92]	@ 0x5c
 80016c0:	f043 0320 	orr.w	r3, r3, #32
 80016c4:	65e3      	str	r3, [r4, #92]	@ 0x5c
 80016c6:	2001      	movs	r0, #1
 80016c8:	e8bd 81f0 	ldmia.w	sp!, {r4, r5, r6, r7, r8, pc}
 80016cc:	4a32      	ldr	r2, [pc, #200]	@ (8001798 <HAL_ADC_PollForConversion+0x114>)
 80016ce:	e7e7      	b.n	80016a0 <HAL_ADC_PollForConversion+0x1c>
 80016d0:	f1b3 4fa0 	cmp.w	r3, #1342177280	@ 0x50000000
 80016d4:	d009      	beq.n	80016ea <HAL_ADC_PollForConversion+0x66>
 80016d6:	482f      	ldr	r0, [pc, #188]	@ (8001794 <HAL_ADC_PollForConversion+0x110>)
 80016d8:	4a2f      	ldr	r2, [pc, #188]	@ (8001798 <HAL_ADC_PollForConversion+0x114>)
 80016da:	4930      	ldr	r1, [pc, #192]	@ (800179c <HAL_ADC_PollForConversion+0x118>)
 80016dc:	4283      	cmp	r3, r0
 80016de:	bf18      	it	ne
 80016e0:	460a      	movne	r2, r1
 80016e2:	6893      	ldr	r3, [r2, #8]
 80016e4:	f413 4f60 	tst.w	r3, #57344	@ 0xe000
 80016e8:	e7e8      	b.n	80016bc <HAL_ADC_PollForConversion+0x38>
 80016ea:	4a2b      	ldr	r2, [pc, #172]	@ (8001798 <HAL_ADC_PollForConversion+0x114>)
 80016ec:	e7f9      	b.n	80016e2 <HAL_ADC_PollForConversion+0x5e>
 80016ee:	2504      	movs	r5, #4
 80016f0:	f7ff fe84 	bl	80013fc <HAL_GetTick>
 80016f4:	4680      	mov	r8, r0
 80016f6:	6823      	ldr	r3, [r4, #0]
 80016f8:	681a      	ldr	r2, [r3, #0]
 80016fa:	422a      	tst	r2, r5
 80016fc:	d02a      	beq.n	8001754 <HAL_ADC_PollForConversion+0xd0>
 80016fe:	6de2      	ldr	r2, [r4, #92]	@ 0x5c
 8001700:	f442 7200 	orr.w	r2, r2, #512	@ 0x200
 8001704:	65e2      	str	r2, [r4, #92]	@ 0x5c
 8001706:	68da      	ldr	r2, [r3, #12]
 8001708:	f412 6f40 	tst.w	r2, #3072	@ 0xc00
 800170c:	d10f      	bne.n	800172e <HAL_ADC_PollForConversion+0xaa>
 800170e:	7f62      	ldrb	r2, [r4, #29]
 8001710:	b96a      	cbnz	r2, 800172e <HAL_ADC_PollForConversion+0xaa>
 8001712:	681a      	ldr	r2, [r3, #0]
 8001714:	0712      	lsls	r2, r2, #28
 8001716:	d50a      	bpl.n	800172e <HAL_ADC_PollForConversion+0xaa>
 8001718:	6de2      	ldr	r2, [r4, #92]	@ 0x5c
 800171a:	f422 7280 	bic.w	r2, r2, #256	@ 0x100
 800171e:	65e2      	str	r2, [r4, #92]	@ 0x5c
 8001720:	6de2      	ldr	r2, [r4, #92]	@ 0x5c
 8001722:	04d6      	lsls	r6, r2, #19
 8001724:	bf5e      	ittt	pl
 8001726:	6de2      	ldrpl	r2, [r4, #92]	@ 0x5c
 8001728:	f042 0201 	orrpl.w	r2, r2, #1
 800172c:	65e2      	strpl	r2, [r4, #92]	@ 0x5c
 800172e:	4a19      	ldr	r2, [pc, #100]	@ (8001794 <HAL_ADC_PollForConversion+0x110>)
 8001730:	4293      	cmp	r3, r2
 8001732:	d025      	beq.n	8001780 <HAL_ADC_PollForConversion+0xfc>
 8001734:	f502 6280 	add.w	r2, r2, #1024	@ 0x400
 8001738:	4293      	cmp	r3, r2
 800173a:	d105      	bne.n	8001748 <HAL_ADC_PollForConversion+0xc4>
 800173c:	4918      	ldr	r1, [pc, #96]	@ (80017a0 <HAL_ADC_PollForConversion+0x11c>)
 800173e:	f240 2221 	movw	r2, #545	@ 0x221
 8001742:	40fa      	lsrs	r2, r7
 8001744:	07d0      	lsls	r0, r2, #31
 8001746:	d51e      	bpl.n	8001786 <HAL_ADC_PollForConversion+0x102>
 8001748:	68da      	ldr	r2, [r3, #12]
 800174a:	2d08      	cmp	r5, #8
 800174c:	d11d      	bne.n	800178a <HAL_ADC_PollForConversion+0x106>
 800174e:	601d      	str	r5, [r3, #0]
 8001750:	2000      	movs	r0, #0
 8001752:	e7b9      	b.n	80016c8 <HAL_ADC_PollForConversion+0x44>
 8001754:	1c71      	adds	r1, r6, #1
 8001756:	d0cf      	beq.n	80016f8 <HAL_ADC_PollForConversion+0x74>
 8001758:	f7ff fe50 	bl	80013fc <HAL_GetTick>
 800175c:	eba0 0008 	sub.w	r0, r0, r8
 8001760:	42b0      	cmp	r0, r6
 8001762:	d801      	bhi.n	8001768 <HAL_ADC_PollForConversion+0xe4>
 8001764:	2e00      	cmp	r6, #0
 8001766:	d1c6      	bne.n	80016f6 <HAL_ADC_PollForConversion+0x72>
 8001768:	6823      	ldr	r3, [r4, #0]
 800176a:	681b      	ldr	r3, [r3, #0]
 800176c:	402b      	ands	r3, r5
 800176e:	d1c2      	bne.n	80016f6 <HAL_ADC_PollForConversion+0x72>
 8001770:	6de2      	ldr	r2, [r4, #92]	@ 0x5c
 8001772:	f884 3058 	strb.w	r3, [r4, #88]	@ 0x58
 8001776:	f042 0204 	orr.w	r2, r2, #4
 800177a:	65e2      	str	r2, [r4, #92]	@ 0x5c
 800177c:	2003      	movs	r0, #3
 800177e:	e7a3      	b.n	80016c8 <HAL_ADC_PollForConversion+0x44>
 8001780:	f04f 41a0 	mov.w	r1, #1342177280	@ 0x50000000
 8001784:	e7db      	b.n	800173e <HAL_ADC_PollForConversion+0xba>
 8001786:	68ca      	ldr	r2, [r1, #12]
 8001788:	e7df      	b.n	800174a <HAL_ADC_PollForConversion+0xc6>
 800178a:	0452      	lsls	r2, r2, #17
 800178c:	d4e0      	bmi.n	8001750 <HAL_ADC_PollForConversion+0xcc>
 800178e:	220c      	movs	r2, #12
 8001790:	601a      	str	r2, [r3, #0]
 8001792:	e7dd      	b.n	8001750 <HAL_ADC_PollForConversion+0xcc>
 8001794:	50000100 	.word	0x50000100
 8001798:	50000300 	.word	0x50000300
 800179c:	50000700 	.word	0x50000700
 80017a0:	50000400 	.word	0x50000400

080017a4 <HAL_ADC_GetValue>:
 80017a4:	6803      	ldr	r3, [r0, #0]
 80017a6:	6c18      	ldr	r0, [r3, #64]	@ 0x40
 80017a8:	4770      	bx	lr
	...

080017ac <HAL_ADC_ConfigChannel>:
 80017ac:	b5f7      	push	{r0, r1, r2, r4, r5, r6, r7, lr}
 80017ae:	2300      	movs	r3, #0
 80017b0:	9301      	str	r3, [sp, #4]
 80017b2:	f890 3058 	ldrb.w	r3, [r0, #88]	@ 0x58
 80017b6:	2b01      	cmp	r3, #1
 80017b8:	4605      	mov	r5, r0
 80017ba:	460e      	mov	r6, r1
 80017bc:	f000 81e5 	beq.w	8001b8a <HAL_ADC_ConfigChannel+0x3de>
 80017c0:	6804      	ldr	r4, [r0, #0]
 80017c2:	2301      	movs	r3, #1
 80017c4:	f880 3058 	strb.w	r3, [r0, #88]	@ 0x58
 80017c8:	4620      	mov	r0, r4
 80017ca:	f7ff fe45 	bl	8001458 <LL_ADC_REG_IsConversionOngoing>
 80017ce:	2800      	cmp	r0, #0
 80017d0:	f040 81d5 	bne.w	8001b7e <HAL_ADC_ConfigChannel+0x3d2>
 80017d4:	684a      	ldr	r2, [r1, #4]
 80017d6:	6833      	ldr	r3, [r6, #0]
 80017d8:	0991      	lsrs	r1, r2, #6
 80017da:	f001 010c 	and.w	r1, r1, #12
 80017de:	f104 0730 	add.w	r7, r4, #48	@ 0x30
 80017e2:	f002 021f 	and.w	r2, r2, #31
 80017e6:	5878      	ldr	r0, [r7, r1]
 80017e8:	f04f 0c1f 	mov.w	ip, #31
 80017ec:	f3c3 6384 	ubfx	r3, r3, #26, #5
 80017f0:	4093      	lsls	r3, r2
 80017f2:	fa0c f202 	lsl.w	r2, ip, r2
 80017f6:	ea20 0202 	bic.w	r2, r0, r2
 80017fa:	4313      	orrs	r3, r2
 80017fc:	507b      	str	r3, [r7, r1]
 80017fe:	4620      	mov	r0, r4
 8001800:	f7ff fe2a 	bl	8001458 <LL_ADC_REG_IsConversionOngoing>
 8001804:	68a2      	ldr	r2, [r4, #8]
 8001806:	f002 0208 	and.w	r2, r2, #8
 800180a:	4302      	orrs	r2, r0
 800180c:	d13b      	bne.n	8001886 <HAL_ADC_ConfigChannel+0xda>
 800180e:	68b3      	ldr	r3, [r6, #8]
 8001810:	6831      	ldr	r1, [r6, #0]
 8001812:	f1b3 4f00 	cmp.w	r3, #2147483648	@ 0x80000000
 8001816:	d174      	bne.n	8001902 <HAL_ADC_ConfigChannel+0x156>
 8001818:	4620      	mov	r0, r4
 800181a:	f7ff fe09 	bl	8001430 <LL_ADC_SetChannelSamplingTime>
 800181e:	6963      	ldr	r3, [r4, #20]
 8001820:	f043 4300 	orr.w	r3, r3, #2147483648	@ 0x80000000
 8001824:	6163      	str	r3, [r4, #20]
 8001826:	6937      	ldr	r7, [r6, #16]
 8001828:	6971      	ldr	r1, [r6, #20]
 800182a:	68e0      	ldr	r0, [r4, #12]
 800182c:	6832      	ldr	r2, [r6, #0]
 800182e:	2f04      	cmp	r7, #4
 8001830:	f104 0360 	add.w	r3, r4, #96	@ 0x60
 8001834:	d06d      	beq.n	8001912 <HAL_ADC_ConfigChannel+0x166>
 8001836:	f3c0 00c1 	ubfx	r0, r0, #3, #2
 800183a:	0040      	lsls	r0, r0, #1
 800183c:	f853 c027 	ldr.w	ip, [r3, r7, lsl #2]
 8001840:	4081      	lsls	r1, r0
 8001842:	48b5      	ldr	r0, [pc, #724]	@ (8001b18 <HAL_ADC_ConfigChannel+0x36c>)
 8001844:	f002 42f8 	and.w	r2, r2, #2080374784	@ 0x7c000000
 8001848:	ea0c 0000 	and.w	r0, ip, r0
 800184c:	4310      	orrs	r0, r2
 800184e:	ea41 0200 	orr.w	r2, r1, r0
 8001852:	f042 4200 	orr.w	r2, r2, #2147483648	@ 0x80000000
 8001856:	f843 2027 	str.w	r2, [r3, r7, lsl #2]
 800185a:	6931      	ldr	r1, [r6, #16]
 800185c:	69b0      	ldr	r0, [r6, #24]
 800185e:	f853 2021 	ldr.w	r2, [r3, r1, lsl #2]
 8001862:	f022 7280 	bic.w	r2, r2, #16777216	@ 0x1000000
 8001866:	4302      	orrs	r2, r0
 8001868:	f843 2021 	str.w	r2, [r3, r1, lsl #2]
 800186c:	7f31      	ldrb	r1, [r6, #28]
 800186e:	6930      	ldr	r0, [r6, #16]
 8001870:	1e4f      	subs	r7, r1, #1
 8001872:	f853 2020 	ldr.w	r2, [r3, r0, lsl #2]
 8001876:	4279      	negs	r1, r7
 8001878:	4179      	adcs	r1, r7
 800187a:	f022 7200 	bic.w	r2, r2, #33554432	@ 0x2000000
 800187e:	ea42 6241 	orr.w	r2, r2, r1, lsl #25
 8001882:	f843 2020 	str.w	r2, [r3, r0, lsl #2]
 8001886:	4620      	mov	r0, r4
 8001888:	f7ff fde2 	bl	8001450 <LL_ADC_IsEnabled>
 800188c:	bb70      	cbnz	r0, 80018ec <HAL_ADC_ConfigChannel+0x140>
 800188e:	68f7      	ldr	r7, [r6, #12]
 8001890:	6833      	ldr	r3, [r6, #0]
 8001892:	4aa2      	ldr	r2, [pc, #648]	@ (8001b1c <HAL_ADC_ConfigChannel+0x370>)
 8001894:	f8d4 10b0 	ldr.w	r1, [r4, #176]	@ 0xb0
 8001898:	f007 0c18 	and.w	ip, r7, #24
 800189c:	f3c3 0012 	ubfx	r0, r3, #0, #19
 80018a0:	fa22 f20c 	lsr.w	r2, r2, ip
 80018a4:	401a      	ands	r2, r3
 80018a6:	ea21 0100 	bic.w	r1, r1, r0
 80018aa:	430a      	orrs	r2, r1
 80018ac:	f8c4 20b0 	str.w	r2, [r4, #176]	@ 0xb0
 80018b0:	4a9b      	ldr	r2, [pc, #620]	@ (8001b20 <HAL_ADC_ConfigChannel+0x374>)
 80018b2:	4297      	cmp	r7, r2
 80018b4:	d11a      	bne.n	80018ec <HAL_ADC_ConfigChannel+0x140>
 80018b6:	2800      	cmp	r0, #0
 80018b8:	f040 808a 	bne.w	80019d0 <HAL_ADC_ConfigChannel+0x224>
 80018bc:	0e9a      	lsrs	r2, r3, #26
 80018be:	3201      	adds	r2, #1
 80018c0:	f002 011f 	and.w	r1, r2, #31
 80018c4:	2001      	movs	r0, #1
 80018c6:	2909      	cmp	r1, #9
 80018c8:	ea4f 6282 	mov.w	r2, r2, lsl #26
 80018cc:	fa01 f300 	lsl.w	r3, r1, r0
 80018d0:	f200 80a4 	bhi.w	8001a1c <HAL_ADC_ConfigChannel+0x270>
 80018d4:	f002 42f8 	and.w	r2, r2, #2080374784	@ 0x7c000000
 80018d8:	4088      	lsls	r0, r1
 80018da:	4302      	orrs	r2, r0
 80018dc:	440b      	add	r3, r1
 80018de:	051b      	lsls	r3, r3, #20
 80018e0:	ea43 0102 	orr.w	r1, r3, r2
 80018e4:	4620      	mov	r0, r4
 80018e6:	68b2      	ldr	r2, [r6, #8]
 80018e8:	f7ff fda2 	bl	8001430 <LL_ADC_SetChannelSamplingTime>
 80018ec:	6833      	ldr	r3, [r6, #0]
 80018ee:	4a8d      	ldr	r2, [pc, #564]	@ (8001b24 <HAL_ADC_ConfigChannel+0x378>)
 80018f0:	4213      	tst	r3, r2
 80018f2:	f040 80bf 	bne.w	8001a74 <HAL_ADC_ConfigChannel+0x2c8>
 80018f6:	2000      	movs	r0, #0
 80018f8:	2300      	movs	r3, #0
 80018fa:	f885 3058 	strb.w	r3, [r5, #88]	@ 0x58
 80018fe:	b003      	add	sp, #12
 8001900:	bdf0      	pop	{r4, r5, r6, r7, pc}
 8001902:	461a      	mov	r2, r3
 8001904:	4620      	mov	r0, r4
 8001906:	f7ff fd93 	bl	8001430 <LL_ADC_SetChannelSamplingTime>
 800190a:	6963      	ldr	r3, [r4, #20]
 800190c:	f023 4300 	bic.w	r3, r3, #2147483648	@ 0x80000000
 8001910:	e788      	b.n	8001824 <HAL_ADC_ConfigChannel+0x78>
 8001912:	6e21      	ldr	r1, [r4, #96]	@ 0x60
 8001914:	6e21      	ldr	r1, [r4, #96]	@ 0x60
 8001916:	f3c2 0012 	ubfx	r0, r2, #0, #19
 800191a:	f3c1 6184 	ubfx	r1, r1, #26, #5
 800191e:	2800      	cmp	r0, #0
 8001920:	d139      	bne.n	8001996 <HAL_ADC_ConfigChannel+0x1ea>
 8001922:	f3c2 6284 	ubfx	r2, r2, #26, #5
 8001926:	4291      	cmp	r1, r2
 8001928:	bf02      	ittt	eq
 800192a:	6e22      	ldreq	r2, [r4, #96]	@ 0x60
 800192c:	f022 4200 	biceq.w	r2, r2, #2147483648	@ 0x80000000
 8001930:	6622      	streq	r2, [r4, #96]	@ 0x60
 8001932:	6e62      	ldr	r2, [r4, #100]	@ 0x64
 8001934:	6832      	ldr	r2, [r6, #0]
 8001936:	6e61      	ldr	r1, [r4, #100]	@ 0x64
 8001938:	f3c2 0012 	ubfx	r0, r2, #0, #19
 800193c:	f3c1 6184 	ubfx	r1, r1, #26, #5
 8001940:	2800      	cmp	r0, #0
 8001942:	d12f      	bne.n	80019a4 <HAL_ADC_ConfigChannel+0x1f8>
 8001944:	f3c2 6284 	ubfx	r2, r2, #26, #5
 8001948:	4291      	cmp	r1, r2
 800194a:	bf02      	ittt	eq
 800194c:	6e62      	ldreq	r2, [r4, #100]	@ 0x64
 800194e:	f022 4200 	biceq.w	r2, r2, #2147483648	@ 0x80000000
 8001952:	6662      	streq	r2, [r4, #100]	@ 0x64
 8001954:	689a      	ldr	r2, [r3, #8]
 8001956:	6832      	ldr	r2, [r6, #0]
 8001958:	6899      	ldr	r1, [r3, #8]
 800195a:	f3c2 0012 	ubfx	r0, r2, #0, #19
 800195e:	f3c1 6184 	ubfx	r1, r1, #26, #5
 8001962:	bb30      	cbnz	r0, 80019b2 <HAL_ADC_ConfigChannel+0x206>
 8001964:	f3c2 6284 	ubfx	r2, r2, #26, #5
 8001968:	4291      	cmp	r1, r2
 800196a:	bf02      	ittt	eq
 800196c:	689a      	ldreq	r2, [r3, #8]
 800196e:	f022 4200 	biceq.w	r2, r2, #2147483648	@ 0x80000000
 8001972:	609a      	streq	r2, [r3, #8]
 8001974:	68da      	ldr	r2, [r3, #12]
 8001976:	6832      	ldr	r2, [r6, #0]
 8001978:	68d9      	ldr	r1, [r3, #12]
 800197a:	f3c2 0012 	ubfx	r0, r2, #0, #19
 800197e:	f3c1 6184 	ubfx	r1, r1, #26, #5
 8001982:	b9e8      	cbnz	r0, 80019c0 <HAL_ADC_ConfigChannel+0x214>
 8001984:	f3c2 6284 	ubfx	r2, r2, #26, #5
 8001988:	4291      	cmp	r1, r2
 800198a:	bf02      	ittt	eq
 800198c:	68da      	ldreq	r2, [r3, #12]
 800198e:	f022 4200 	biceq.w	r2, r2, #2147483648	@ 0x80000000
 8001992:	60da      	streq	r2, [r3, #12]
 8001994:	e777      	b.n	8001886 <HAL_ADC_ConfigChannel+0xda>
 8001996:	fa92 f2a2 	rbit	r2, r2
 800199a:	2a00      	cmp	r2, #0
 800199c:	d0c9      	beq.n	8001932 <HAL_ADC_ConfigChannel+0x186>
 800199e:	fab2 f282 	clz	r2, r2
 80019a2:	e7c0      	b.n	8001926 <HAL_ADC_ConfigChannel+0x17a>
 80019a4:	fa92 f2a2 	rbit	r2, r2
 80019a8:	2a00      	cmp	r2, #0
 80019aa:	d0d3      	beq.n	8001954 <HAL_ADC_ConfigChannel+0x1a8>
 80019ac:	fab2 f282 	clz	r2, r2
 80019b0:	e7ca      	b.n	8001948 <HAL_ADC_ConfigChannel+0x19c>
 80019b2:	fa92 f2a2 	rbit	r2, r2
 80019b6:	2a00      	cmp	r2, #0
 80019b8:	d0dc      	beq.n	8001974 <HAL_ADC_ConfigChannel+0x1c8>
 80019ba:	fab2 f282 	clz	r2, r2
 80019be:	e7d3      	b.n	8001968 <HAL_ADC_ConfigChannel+0x1bc>
 80019c0:	fa92 f2a2 	rbit	r2, r2
 80019c4:	2a00      	cmp	r2, #0
 80019c6:	f43f af5e 	beq.w	8001886 <HAL_ADC_ConfigChannel+0xda>
 80019ca:	fab2 f282 	clz	r2, r2
 80019ce:	e7db      	b.n	8001988 <HAL_ADC_ConfigChannel+0x1dc>
 80019d0:	fa93 f2a3 	rbit	r2, r3
 80019d4:	b132      	cbz	r2, 80019e4 <HAL_ADC_ConfigChannel+0x238>
 80019d6:	fab2 f282 	clz	r2, r2
 80019da:	3201      	adds	r2, #1
 80019dc:	f002 021f 	and.w	r2, r2, #31
 80019e0:	2a09      	cmp	r2, #9
 80019e2:	d825      	bhi.n	8001a30 <HAL_ADC_ConfigChannel+0x284>
 80019e4:	fa93 f1a3 	rbit	r1, r3
 80019e8:	fab1 f181 	clz	r1, r1
 80019ec:	3101      	adds	r1, #1
 80019ee:	0689      	lsls	r1, r1, #26
 80019f0:	f001 41f8 	and.w	r1, r1, #2080374784	@ 0x7c000000
 80019f4:	fa93 f0a3 	rbit	r0, r3
 80019f8:	fab0 f080 	clz	r0, r0
 80019fc:	3001      	adds	r0, #1
 80019fe:	f000 001f 	and.w	r0, r0, #31
 8001a02:	2201      	movs	r2, #1
 8001a04:	4082      	lsls	r2, r0
 8001a06:	430a      	orrs	r2, r1
 8001a08:	fa93 f3a3 	rbit	r3, r3
 8001a0c:	fab3 f383 	clz	r3, r3
 8001a10:	3301      	adds	r3, #1
 8001a12:	f003 031f 	and.w	r3, r3, #31
 8001a16:	eb03 0343 	add.w	r3, r3, r3, lsl #1
 8001a1a:	e760      	b.n	80018de <HAL_ADC_ConfigChannel+0x132>
 8001a1c:	4088      	lsls	r0, r1
 8001a1e:	4419      	add	r1, r3
 8001a20:	391e      	subs	r1, #30
 8001a22:	f002 42f8 	and.w	r2, r2, #2080374784	@ 0x7c000000
 8001a26:	0509      	lsls	r1, r1, #20
 8001a28:	4302      	orrs	r2, r0
 8001a2a:	f041 7300 	orr.w	r3, r1, #33554432	@ 0x2000000
 8001a2e:	e757      	b.n	80018e0 <HAL_ADC_ConfigChannel+0x134>
 8001a30:	fa93 f1a3 	rbit	r1, r3
 8001a34:	fab1 f181 	clz	r1, r1
 8001a38:	3101      	adds	r1, #1
 8001a3a:	0689      	lsls	r1, r1, #26
 8001a3c:	f001 41f8 	and.w	r1, r1, #2080374784	@ 0x7c000000
 8001a40:	fa93 f0a3 	rbit	r0, r3
 8001a44:	fab0 f080 	clz	r0, r0
 8001a48:	3001      	adds	r0, #1
 8001a4a:	f000 001f 	and.w	r0, r0, #31
 8001a4e:	2201      	movs	r2, #1
 8001a50:	4082      	lsls	r2, r0
 8001a52:	430a      	orrs	r2, r1
 8001a54:	fa93 f1a3 	rbit	r1, r3
 8001a58:	fab1 f181 	clz	r1, r1
 8001a5c:	3101      	adds	r1, #1
 8001a5e:	f001 011f 	and.w	r1, r1, #31
 8001a62:	2303      	movs	r3, #3
 8001a64:	f06f 001d 	mvn.w	r0, #29
 8001a68:	fb13 0301 	smlabb	r3, r3, r1, r0
 8001a6c:	051b      	lsls	r3, r3, #20
 8001a6e:	f043 7300 	orr.w	r3, r3, #33554432	@ 0x2000000
 8001a72:	e735      	b.n	80018e0 <HAL_ADC_ConfigChannel+0x134>
 8001a74:	f1b4 4fa0 	cmp.w	r4, #1342177280	@ 0x50000000
 8001a78:	d030      	beq.n	8001adc <HAL_ADC_ConfigChannel+0x330>
 8001a7a:	482b      	ldr	r0, [pc, #172]	@ (8001b28 <HAL_ADC_ConfigChannel+0x37c>)
 8001a7c:	4a2b      	ldr	r2, [pc, #172]	@ (8001b2c <HAL_ADC_ConfigChannel+0x380>)
 8001a7e:	492c      	ldr	r1, [pc, #176]	@ (8001b30 <HAL_ADC_ConfigChannel+0x384>)
 8001a80:	4284      	cmp	r4, r0
 8001a82:	bf18      	it	ne
 8001a84:	460a      	movne	r2, r1
 8001a86:	482b      	ldr	r0, [pc, #172]	@ (8001b34 <HAL_ADC_ConfigChannel+0x388>)
 8001a88:	6892      	ldr	r2, [r2, #8]
 8001a8a:	4283      	cmp	r3, r0
 8001a8c:	f002 71e0 	and.w	r1, r2, #29360128	@ 0x1c00000
 8001a90:	d002      	beq.n	8001a98 <HAL_ADC_ConfigChannel+0x2ec>
 8001a92:	4829      	ldr	r0, [pc, #164]	@ (8001b38 <HAL_ADC_ConfigChannel+0x38c>)
 8001a94:	4283      	cmp	r3, r0
 8001a96:	d125      	bne.n	8001ae4 <HAL_ADC_ConfigChannel+0x338>
 8001a98:	0210      	lsls	r0, r2, #8
 8001a9a:	f53f af2c 	bmi.w	80018f6 <HAL_ADC_ConfigChannel+0x14a>
 8001a9e:	f1b4 4fa0 	cmp.w	r4, #1342177280	@ 0x50000000
 8001aa2:	d01d      	beq.n	8001ae0 <HAL_ADC_ConfigChannel+0x334>
 8001aa4:	4b25      	ldr	r3, [pc, #148]	@ (8001b3c <HAL_ADC_ConfigChannel+0x390>)
 8001aa6:	429c      	cmp	r4, r3
 8001aa8:	f47f af25 	bne.w	80018f6 <HAL_ADC_ConfigChannel+0x14a>
 8001aac:	4a20      	ldr	r2, [pc, #128]	@ (8001b30 <HAL_ADC_ConfigChannel+0x384>)
 8001aae:	6893      	ldr	r3, [r2, #8]
 8001ab0:	f023 73e0 	bic.w	r3, r3, #29360128	@ 0x1c00000
 8001ab4:	430b      	orrs	r3, r1
 8001ab6:	f443 0300 	orr.w	r3, r3, #8388608	@ 0x800000
 8001aba:	6093      	str	r3, [r2, #8]
 8001abc:	4b20      	ldr	r3, [pc, #128]	@ (8001b40 <HAL_ADC_ConfigChannel+0x394>)
 8001abe:	681a      	ldr	r2, [r3, #0]
 8001ac0:	4b20      	ldr	r3, [pc, #128]	@ (8001b44 <HAL_ADC_ConfigChannel+0x398>)
 8001ac2:	fbb2 f2f3 	udiv	r2, r2, r3
 8001ac6:	230c      	movs	r3, #12
 8001ac8:	fb02 3303 	mla	r3, r2, r3, r3
 8001acc:	9301      	str	r3, [sp, #4]
 8001ace:	9b01      	ldr	r3, [sp, #4]
 8001ad0:	2b00      	cmp	r3, #0
 8001ad2:	f43f af10 	beq.w	80018f6 <HAL_ADC_ConfigChannel+0x14a>
 8001ad6:	9b01      	ldr	r3, [sp, #4]
 8001ad8:	3b01      	subs	r3, #1
 8001ada:	e7f7      	b.n	8001acc <HAL_ADC_ConfigChannel+0x320>
 8001adc:	4a13      	ldr	r2, [pc, #76]	@ (8001b2c <HAL_ADC_ConfigChannel+0x380>)
 8001ade:	e7d2      	b.n	8001a86 <HAL_ADC_ConfigChannel+0x2da>
 8001ae0:	4a12      	ldr	r2, [pc, #72]	@ (8001b2c <HAL_ADC_ConfigChannel+0x380>)
 8001ae2:	e7e4      	b.n	8001aae <HAL_ADC_ConfigChannel+0x302>
 8001ae4:	4818      	ldr	r0, [pc, #96]	@ (8001b48 <HAL_ADC_ConfigChannel+0x39c>)
 8001ae6:	4283      	cmp	r3, r0
 8001ae8:	d130      	bne.n	8001b4c <HAL_ADC_ConfigChannel+0x3a0>
 8001aea:	01d2      	lsls	r2, r2, #7
 8001aec:	f53f af03 	bmi.w	80018f6 <HAL_ADC_ConfigChannel+0x14a>
 8001af0:	f1b4 4fa0 	cmp.w	r4, #1342177280	@ 0x50000000
 8001af4:	d00d      	beq.n	8001b12 <HAL_ADC_ConfigChannel+0x366>
 8001af6:	480c      	ldr	r0, [pc, #48]	@ (8001b28 <HAL_ADC_ConfigChannel+0x37c>)
 8001af8:	4a0c      	ldr	r2, [pc, #48]	@ (8001b2c <HAL_ADC_ConfigChannel+0x380>)
 8001afa:	4b0d      	ldr	r3, [pc, #52]	@ (8001b30 <HAL_ADC_ConfigChannel+0x384>)
 8001afc:	4284      	cmp	r4, r0
 8001afe:	bf18      	it	ne
 8001b00:	461a      	movne	r2, r3
 8001b02:	6893      	ldr	r3, [r2, #8]
 8001b04:	f023 73e0 	bic.w	r3, r3, #29360128	@ 0x1c00000
 8001b08:	430b      	orrs	r3, r1
 8001b0a:	f043 7380 	orr.w	r3, r3, #16777216	@ 0x1000000
 8001b0e:	6093      	str	r3, [r2, #8]
 8001b10:	e6f1      	b.n	80018f6 <HAL_ADC_ConfigChannel+0x14a>
 8001b12:	4a06      	ldr	r2, [pc, #24]	@ (8001b2c <HAL_ADC_ConfigChannel+0x380>)
 8001b14:	e7f5      	b.n	8001b02 <HAL_ADC_ConfigChannel+0x356>
 8001b16:	bf00      	nop
 8001b18:	03fff000 	.word	0x03fff000
 8001b1c:	0007ffff 	.word	0x0007ffff
 8001b20:	407f0000 	.word	0x407f0000
 8001b24:	80080000 	.word	0x80080000
 8001b28:	50000100 	.word	0x50000100
 8001b2c:	50000300 	.word	0x50000300
 8001b30:	50000700 	.word	0x50000700
 8001b34:	c3210000 	.word	0xc3210000
 8001b38:	90c00010 	.word	0x90c00010
 8001b3c:	50000600 	.word	0x50000600
 8001b40:	20000010 	.word	0x20000010
 8001b44:	00030d40 	.word	0x00030d40
 8001b48:	c7520000 	.word	0xc7520000
 8001b4c:	4810      	ldr	r0, [pc, #64]	@ (8001b90 <HAL_ADC_ConfigChannel+0x3e4>)
 8001b4e:	4283      	cmp	r3, r0
 8001b50:	f47f aed1 	bne.w	80018f6 <HAL_ADC_ConfigChannel+0x14a>
 8001b54:	0253      	lsls	r3, r2, #9
 8001b56:	f53f aece 	bmi.w	80018f6 <HAL_ADC_ConfigChannel+0x14a>
 8001b5a:	4b0e      	ldr	r3, [pc, #56]	@ (8001b94 <HAL_ADC_ConfigChannel+0x3e8>)
 8001b5c:	429c      	cmp	r4, r3
 8001b5e:	f43f aeca 	beq.w	80018f6 <HAL_ADC_ConfigChannel+0x14a>
 8001b62:	4a0d      	ldr	r2, [pc, #52]	@ (8001b98 <HAL_ADC_ConfigChannel+0x3ec>)
 8001b64:	f503 7300 	add.w	r3, r3, #512	@ 0x200
 8001b68:	f1b4 4fa0 	cmp.w	r4, #1342177280	@ 0x50000000
 8001b6c:	bf08      	it	eq
 8001b6e:	461a      	moveq	r2, r3
 8001b70:	6893      	ldr	r3, [r2, #8]
 8001b72:	f023 73e0 	bic.w	r3, r3, #29360128	@ 0x1c00000
 8001b76:	430b      	orrs	r3, r1
 8001b78:	f443 0380 	orr.w	r3, r3, #4194304	@ 0x400000
 8001b7c:	e7c7      	b.n	8001b0e <HAL_ADC_ConfigChannel+0x362>
 8001b7e:	6dea      	ldr	r2, [r5, #92]	@ 0x5c
 8001b80:	f042 0220 	orr.w	r2, r2, #32
 8001b84:	65ea      	str	r2, [r5, #92]	@ 0x5c
 8001b86:	4618      	mov	r0, r3
 8001b88:	e6b6      	b.n	80018f8 <HAL_ADC_ConfigChannel+0x14c>
 8001b8a:	2002      	movs	r0, #2
 8001b8c:	e6b7      	b.n	80018fe <HAL_ADC_ConfigChannel+0x152>
 8001b8e:	bf00      	nop
 8001b90:	cb840000 	.word	0xcb840000
 8001b94:	50000100 	.word	0x50000100
 8001b98:	50000700 	.word	0x50000700

08001b9c <ADC_ConversionStop>:
 8001b9c:	6803      	ldr	r3, [r0, #0]
 8001b9e:	b570      	push	{r4, r5, r6, lr}
 8001ba0:	4604      	mov	r4, r0
 8001ba2:	4618      	mov	r0, r3
 8001ba4:	f7ff fc58 	bl	8001458 <LL_ADC_REG_IsConversionOngoing>
 8001ba8:	689a      	ldr	r2, [r3, #8]
 8001baa:	f002 0208 	and.w	r2, r2, #8
 8001bae:	4302      	orrs	r2, r0
 8001bb0:	d101      	bne.n	8001bb6 <ADC_ConversionStop+0x1a>
 8001bb2:	2000      	movs	r0, #0
 8001bb4:	bd70      	pop	{r4, r5, r6, pc}
 8001bb6:	68da      	ldr	r2, [r3, #12]
 8001bb8:	0192      	lsls	r2, r2, #6
 8001bba:	d53a      	bpl.n	8001c32 <ADC_ConversionStop+0x96>
 8001bbc:	8ba0      	ldrh	r0, [r4, #28]
 8001bbe:	f240 1201 	movw	r2, #257	@ 0x101
 8001bc2:	4290      	cmp	r0, r2
 8001bc4:	d135      	bne.n	8001c32 <ADC_ConversionStop+0x96>
 8001bc6:	4a27      	ldr	r2, [pc, #156]	@ (8001c64 <ADC_ConversionStop+0xc8>)
 8001bc8:	6819      	ldr	r1, [r3, #0]
 8001bca:	064e      	lsls	r6, r1, #25
 8001bcc:	d525      	bpl.n	8001c1a <ADC_ConversionStop+0x7e>
 8001bce:	2240      	movs	r2, #64	@ 0x40
 8001bd0:	601a      	str	r2, [r3, #0]
 8001bd2:	2101      	movs	r1, #1
 8001bd4:	4618      	mov	r0, r3
 8001bd6:	f7ff fc3f 	bl	8001458 <LL_ADC_REG_IsConversionOngoing>
 8001bda:	b150      	cbz	r0, 8001bf2 <ADC_ConversionStop+0x56>
 8001bdc:	689a      	ldr	r2, [r3, #8]
 8001bde:	0795      	lsls	r5, r2, #30
 8001be0:	d407      	bmi.n	8001bf2 <ADC_ConversionStop+0x56>
 8001be2:	689a      	ldr	r2, [r3, #8]
 8001be4:	f022 4200 	bic.w	r2, r2, #2147483648	@ 0x80000000
 8001be8:	f022 023f 	bic.w	r2, r2, #63	@ 0x3f
 8001bec:	f042 0210 	orr.w	r2, r2, #16
 8001bf0:	609a      	str	r2, [r3, #8]
 8001bf2:	2901      	cmp	r1, #1
 8001bf4:	d11f      	bne.n	8001c36 <ADC_ConversionStop+0x9a>
 8001bf6:	2504      	movs	r5, #4
 8001bf8:	f7ff fc00 	bl	80013fc <HAL_GetTick>
 8001bfc:	4606      	mov	r6, r0
 8001bfe:	6823      	ldr	r3, [r4, #0]
 8001c00:	689b      	ldr	r3, [r3, #8]
 8001c02:	422b      	tst	r3, r5
 8001c04:	d0d5      	beq.n	8001bb2 <ADC_ConversionStop+0x16>
 8001c06:	f7ff fbf9 	bl	80013fc <HAL_GetTick>
 8001c0a:	1b80      	subs	r0, r0, r6
 8001c0c:	2805      	cmp	r0, #5
 8001c0e:	d9f6      	bls.n	8001bfe <ADC_ConversionStop+0x62>
 8001c10:	6823      	ldr	r3, [r4, #0]
 8001c12:	689b      	ldr	r3, [r3, #8]
 8001c14:	422b      	tst	r3, r5
 8001c16:	d0f2      	beq.n	8001bfe <ADC_ConversionStop+0x62>
 8001c18:	e001      	b.n	8001c1e <ADC_ConversionStop+0x82>
 8001c1a:	3a01      	subs	r2, #1
 8001c1c:	d1d4      	bne.n	8001bc8 <ADC_ConversionStop+0x2c>
 8001c1e:	6de3      	ldr	r3, [r4, #92]	@ 0x5c
 8001c20:	f043 0310 	orr.w	r3, r3, #16
 8001c24:	65e3      	str	r3, [r4, #92]	@ 0x5c
 8001c26:	6e23      	ldr	r3, [r4, #96]	@ 0x60
 8001c28:	f043 0301 	orr.w	r3, r3, #1
 8001c2c:	6623      	str	r3, [r4, #96]	@ 0x60
 8001c2e:	2001      	movs	r0, #1
 8001c30:	e7c0      	b.n	8001bb4 <ADC_ConversionStop+0x18>
 8001c32:	2902      	cmp	r1, #2
 8001c34:	d1ce      	bne.n	8001bd4 <ADC_ConversionStop+0x38>
 8001c36:	689a      	ldr	r2, [r3, #8]
 8001c38:	0710      	lsls	r0, r2, #28
 8001c3a:	d50a      	bpl.n	8001c52 <ADC_ConversionStop+0xb6>
 8001c3c:	689a      	ldr	r2, [r3, #8]
 8001c3e:	0792      	lsls	r2, r2, #30
 8001c40:	d407      	bmi.n	8001c52 <ADC_ConversionStop+0xb6>
 8001c42:	689a      	ldr	r2, [r3, #8]
 8001c44:	f022 4200 	bic.w	r2, r2, #2147483648	@ 0x80000000
 8001c48:	f022 023f 	bic.w	r2, r2, #63	@ 0x3f
 8001c4c:	f042 0220 	orr.w	r2, r2, #32
 8001c50:	609a      	str	r2, [r3, #8]
 8001c52:	2902      	cmp	r1, #2
 8001c54:	d003      	beq.n	8001c5e <ADC_ConversionStop+0xc2>
 8001c56:	2903      	cmp	r1, #3
 8001c58:	d1cd      	bne.n	8001bf6 <ADC_ConversionStop+0x5a>
 8001c5a:	250c      	movs	r5, #12
 8001c5c:	e7cc      	b.n	8001bf8 <ADC_ConversionStop+0x5c>
 8001c5e:	2508      	movs	r5, #8
 8001c60:	e7ca      	b.n	8001bf8 <ADC_ConversionStop+0x5c>
 8001c62:	bf00      	nop
 8001c64:	a3400001 	.word	0xa3400001

08001c68 <ADC_Enable>:
 8001c68:	b573      	push	{r0, r1, r4, r5, r6, lr}
 8001c6a:	6802      	ldr	r2, [r0, #0]
 8001c6c:	4604      	mov	r4, r0
 8001c6e:	2300      	movs	r3, #0
 8001c70:	4610      	mov	r0, r2
 8001c72:	9301      	str	r3, [sp, #4]
 8001c74:	f7ff fbec 	bl	8001450 <LL_ADC_IsEnabled>
 8001c78:	b110      	cbz	r0, 8001c80 <ADC_Enable+0x18>
 8001c7a:	2000      	movs	r0, #0
 8001c7c:	b002      	add	sp, #8
 8001c7e:	bd70      	pop	{r4, r5, r6, pc}
 8001c80:	6891      	ldr	r1, [r2, #8]
 8001c82:	4b26      	ldr	r3, [pc, #152]	@ (8001d1c <ADC_Enable+0xb4>)
 8001c84:	4219      	tst	r1, r3
 8001c86:	d009      	beq.n	8001c9c <ADC_Enable+0x34>
 8001c88:	6de3      	ldr	r3, [r4, #92]	@ 0x5c
 8001c8a:	f043 0310 	orr.w	r3, r3, #16
 8001c8e:	65e3      	str	r3, [r4, #92]	@ 0x5c
 8001c90:	6e23      	ldr	r3, [r4, #96]	@ 0x60
 8001c92:	f043 0301 	orr.w	r3, r3, #1
 8001c96:	6623      	str	r3, [r4, #96]	@ 0x60
 8001c98:	2001      	movs	r0, #1
 8001c9a:	e7ef      	b.n	8001c7c <ADC_Enable+0x14>
 8001c9c:	6893      	ldr	r3, [r2, #8]
 8001c9e:	f023 4300 	bic.w	r3, r3, #2147483648	@ 0x80000000
 8001ca2:	f023 033f 	bic.w	r3, r3, #63	@ 0x3f
 8001ca6:	f043 0301 	orr.w	r3, r3, #1
 8001caa:	f1b2 4fa0 	cmp.w	r2, #1342177280	@ 0x50000000
 8001cae:	6093      	str	r3, [r2, #8]
 8001cb0:	d023      	beq.n	8001cfa <ADC_Enable+0x92>
 8001cb2:	481b      	ldr	r0, [pc, #108]	@ (8001d20 <ADC_Enable+0xb8>)
 8001cb4:	4b1b      	ldr	r3, [pc, #108]	@ (8001d24 <ADC_Enable+0xbc>)
 8001cb6:	491c      	ldr	r1, [pc, #112]	@ (8001d28 <ADC_Enable+0xc0>)
 8001cb8:	4282      	cmp	r2, r0
 8001cba:	bf18      	it	ne
 8001cbc:	460b      	movne	r3, r1
 8001cbe:	689b      	ldr	r3, [r3, #8]
 8001cc0:	0219      	lsls	r1, r3, #8
 8001cc2:	d41c      	bmi.n	8001cfe <ADC_Enable+0x96>
 8001cc4:	f7ff fb9a 	bl	80013fc <HAL_GetTick>
 8001cc8:	4e18      	ldr	r6, [pc, #96]	@ (8001d2c <ADC_Enable+0xc4>)
 8001cca:	4605      	mov	r5, r0
 8001ccc:	6822      	ldr	r2, [r4, #0]
 8001cce:	6813      	ldr	r3, [r2, #0]
 8001cd0:	07db      	lsls	r3, r3, #31
 8001cd2:	d4d2      	bmi.n	8001c7a <ADC_Enable+0x12>
 8001cd4:	4610      	mov	r0, r2
 8001cd6:	f7ff fbbb 	bl	8001450 <LL_ADC_IsEnabled>
 8001cda:	b920      	cbnz	r0, 8001ce6 <ADC_Enable+0x7e>
 8001cdc:	6893      	ldr	r3, [r2, #8]
 8001cde:	4033      	ands	r3, r6
 8001ce0:	f043 0301 	orr.w	r3, r3, #1
 8001ce4:	6093      	str	r3, [r2, #8]
 8001ce6:	f7ff fb89 	bl	80013fc <HAL_GetTick>
 8001cea:	1b40      	subs	r0, r0, r5
 8001cec:	2802      	cmp	r0, #2
 8001cee:	d9ed      	bls.n	8001ccc <ADC_Enable+0x64>
 8001cf0:	6823      	ldr	r3, [r4, #0]
 8001cf2:	681b      	ldr	r3, [r3, #0]
 8001cf4:	07da      	lsls	r2, r3, #31
 8001cf6:	d4e9      	bmi.n	8001ccc <ADC_Enable+0x64>
 8001cf8:	e7c6      	b.n	8001c88 <ADC_Enable+0x20>
 8001cfa:	4b0a      	ldr	r3, [pc, #40]	@ (8001d24 <ADC_Enable+0xbc>)
 8001cfc:	e7df      	b.n	8001cbe <ADC_Enable+0x56>
 8001cfe:	4b0c      	ldr	r3, [pc, #48]	@ (8001d30 <ADC_Enable+0xc8>)
 8001d00:	681a      	ldr	r2, [r3, #0]
 8001d02:	4b0c      	ldr	r3, [pc, #48]	@ (8001d34 <ADC_Enable+0xcc>)
 8001d04:	fbb2 f2f3 	udiv	r2, r2, r3
 8001d08:	230c      	movs	r3, #12
 8001d0a:	fb02 3303 	mla	r3, r2, r3, r3
 8001d0e:	9301      	str	r3, [sp, #4]
 8001d10:	9b01      	ldr	r3, [sp, #4]
 8001d12:	2b00      	cmp	r3, #0
 8001d14:	d0d6      	beq.n	8001cc4 <ADC_Enable+0x5c>
 8001d16:	9b01      	ldr	r3, [sp, #4]
 8001d18:	3b01      	subs	r3, #1
 8001d1a:	e7f8      	b.n	8001d0e <ADC_Enable+0xa6>
 8001d1c:	8000003f 	.word	0x8000003f
 8001d20:	50000100 	.word	0x50000100
 8001d24:	50000300 	.word	0x50000300
 8001d28:	50000700 	.word	0x50000700
 8001d2c:	7fffffc0 	.word	0x7fffffc0
 8001d30:	20000010 	.word	0x20000010
 8001d34:	00030d40 	.word	0x00030d40

08001d38 <HAL_ADC_Start>:
 8001d38:	b570      	push	{r4, r5, r6, lr}
 8001d3a:	4604      	mov	r4, r0
 8001d3c:	6800      	ldr	r0, [r0, #0]
 8001d3e:	f1b0 4fa0 	cmp.w	r0, #1342177280	@ 0x50000000
 8001d42:	d058      	beq.n	8001df6 <HAL_ADC_Start+0xbe>
 8001d44:	4939      	ldr	r1, [pc, #228]	@ (8001e2c <HAL_ADC_Start+0xf4>)
 8001d46:	4b3a      	ldr	r3, [pc, #232]	@ (8001e30 <HAL_ADC_Start+0xf8>)
 8001d48:	4a3a      	ldr	r2, [pc, #232]	@ (8001e34 <HAL_ADC_Start+0xfc>)
 8001d4a:	4288      	cmp	r0, r1
 8001d4c:	bf18      	it	ne
 8001d4e:	4613      	movne	r3, r2
 8001d50:	689e      	ldr	r6, [r3, #8]
 8001d52:	f7ff fb81 	bl	8001458 <LL_ADC_REG_IsConversionOngoing>
 8001d56:	4605      	mov	r5, r0
 8001d58:	2800      	cmp	r0, #0
 8001d5a:	d164      	bne.n	8001e26 <HAL_ADC_Start+0xee>
 8001d5c:	f894 3058 	ldrb.w	r3, [r4, #88]	@ 0x58
 8001d60:	2b01      	cmp	r3, #1
 8001d62:	d060      	beq.n	8001e26 <HAL_ADC_Start+0xee>
 8001d64:	2301      	movs	r3, #1
 8001d66:	f884 3058 	strb.w	r3, [r4, #88]	@ 0x58
 8001d6a:	4620      	mov	r0, r4
 8001d6c:	f7ff ff7c 	bl	8001c68 <ADC_Enable>
 8001d70:	2800      	cmp	r0, #0
 8001d72:	d155      	bne.n	8001e20 <HAL_ADC_Start+0xe8>
 8001d74:	6de3      	ldr	r3, [r4, #92]	@ 0x5c
 8001d76:	4a2d      	ldr	r2, [pc, #180]	@ (8001e2c <HAL_ADC_Start+0xf4>)
 8001d78:	f423 6370 	bic.w	r3, r3, #3840	@ 0xf00
 8001d7c:	f023 0301 	bic.w	r3, r3, #1
 8001d80:	f443 7380 	orr.w	r3, r3, #256	@ 0x100
 8001d84:	65e3      	str	r3, [r4, #92]	@ 0x5c
 8001d86:	6823      	ldr	r3, [r4, #0]
 8001d88:	4293      	cmp	r3, r2
 8001d8a:	f006 011f 	and.w	r1, r6, #31
 8001d8e:	d034      	beq.n	8001dfa <HAL_ADC_Start+0xc2>
 8001d90:	f502 6280 	add.w	r2, r2, #1024	@ 0x400
 8001d94:	4293      	cmp	r3, r2
 8001d96:	d133      	bne.n	8001e00 <HAL_ADC_Start+0xc8>
 8001d98:	f5a2 7280 	sub.w	r2, r2, #256	@ 0x100
 8001d9c:	b919      	cbnz	r1, 8001da6 <HAL_ADC_Start+0x6e>
 8001d9e:	6de5      	ldr	r5, [r4, #92]	@ 0x5c
 8001da0:	f425 1580 	bic.w	r5, r5, #1048576	@ 0x100000
 8001da4:	65e5      	str	r5, [r4, #92]	@ 0x5c
 8001da6:	6de5      	ldr	r5, [r4, #92]	@ 0x5c
 8001da8:	f415 5580 	ands.w	r5, r5, #4096	@ 0x1000
 8001dac:	bf1c      	itt	ne
 8001dae:	6e25      	ldrne	r5, [r4, #96]	@ 0x60
 8001db0:	f025 0506 	bicne.w	r5, r5, #6
 8001db4:	6625      	str	r5, [r4, #96]	@ 0x60
 8001db6:	251c      	movs	r5, #28
 8001db8:	601d      	str	r5, [r3, #0]
 8001dba:	4293      	cmp	r3, r2
 8001dbc:	f04f 0500 	mov.w	r5, #0
 8001dc0:	f884 5058 	strb.w	r5, [r4, #88]	@ 0x58
 8001dc4:	d005      	beq.n	8001dd2 <HAL_ADC_Start+0x9a>
 8001dc6:	f240 2521 	movw	r5, #545	@ 0x221
 8001dca:	fa25 f101 	lsr.w	r1, r5, r1
 8001dce:	07c9      	lsls	r1, r1, #31
 8001dd0:	d518      	bpl.n	8001e04 <HAL_ADC_Start+0xcc>
 8001dd2:	68da      	ldr	r2, [r3, #12]
 8001dd4:	0192      	lsls	r2, r2, #6
 8001dd6:	bf41      	itttt	mi
 8001dd8:	6de2      	ldrmi	r2, [r4, #92]	@ 0x5c
 8001dda:	f422 5240 	bicmi.w	r2, r2, #12288	@ 0x3000
 8001dde:	f442 5280 	orrmi.w	r2, r2, #4096	@ 0x1000
 8001de2:	65e2      	strmi	r2, [r4, #92]	@ 0x5c
 8001de4:	689a      	ldr	r2, [r3, #8]
 8001de6:	f022 4200 	bic.w	r2, r2, #2147483648	@ 0x80000000
 8001dea:	f022 023f 	bic.w	r2, r2, #63	@ 0x3f
 8001dee:	f042 0204 	orr.w	r2, r2, #4
 8001df2:	609a      	str	r2, [r3, #8]
 8001df4:	bd70      	pop	{r4, r5, r6, pc}
 8001df6:	4b0e      	ldr	r3, [pc, #56]	@ (8001e30 <HAL_ADC_Start+0xf8>)
 8001df8:	e7aa      	b.n	8001d50 <HAL_ADC_Start+0x18>
 8001dfa:	f04f 42a0 	mov.w	r2, #1342177280	@ 0x50000000
 8001dfe:	e7cd      	b.n	8001d9c <HAL_ADC_Start+0x64>
 8001e00:	461a      	mov	r2, r3
 8001e02:	e7cc      	b.n	8001d9e <HAL_ADC_Start+0x66>
 8001e04:	6de3      	ldr	r3, [r4, #92]	@ 0x5c
 8001e06:	f443 1380 	orr.w	r3, r3, #1048576	@ 0x100000
 8001e0a:	65e3      	str	r3, [r4, #92]	@ 0x5c
 8001e0c:	68d3      	ldr	r3, [r2, #12]
 8001e0e:	019b      	lsls	r3, r3, #6
 8001e10:	d5f0      	bpl.n	8001df4 <HAL_ADC_Start+0xbc>
 8001e12:	6de3      	ldr	r3, [r4, #92]	@ 0x5c
 8001e14:	f423 5340 	bic.w	r3, r3, #12288	@ 0x3000
 8001e18:	f443 5380 	orr.w	r3, r3, #4096	@ 0x1000
 8001e1c:	65e3      	str	r3, [r4, #92]	@ 0x5c
 8001e1e:	e7e9      	b.n	8001df4 <HAL_ADC_Start+0xbc>
 8001e20:	f884 5058 	strb.w	r5, [r4, #88]	@ 0x58
 8001e24:	e7e6      	b.n	8001df4 <HAL_ADC_Start+0xbc>
 8001e26:	2002      	movs	r0, #2
 8001e28:	e7e4      	b.n	8001df4 <HAL_ADC_Start+0xbc>
 8001e2a:	bf00      	nop
 8001e2c:	50000100 	.word	0x50000100
 8001e30:	50000300 	.word	0x50000300
 8001e34:	50000700 	.word	0x50000700

08001e38 <ADC_Disable>:
 8001e38:	6802      	ldr	r2, [r0, #0]
 8001e3a:	b538      	push	{r3, r4, r5, lr}
 8001e3c:	4604      	mov	r4, r0
 8001e3e:	4610      	mov	r0, r2
 8001e40:	6893      	ldr	r3, [r2, #8]
 8001e42:	f7ff fb05 	bl	8001450 <LL_ADC_IsEnabled>
 8001e46:	b908      	cbnz	r0, 8001e4c <ADC_Disable+0x14>
 8001e48:	2000      	movs	r0, #0
 8001e4a:	bd38      	pop	{r3, r4, r5, pc}
 8001e4c:	0799      	lsls	r1, r3, #30
 8001e4e:	d4fb      	bmi.n	8001e48 <ADC_Disable+0x10>
 8001e50:	6893      	ldr	r3, [r2, #8]
 8001e52:	f003 030d 	and.w	r3, r3, #13
 8001e56:	2b01      	cmp	r3, #1
 8001e58:	d119      	bne.n	8001e8e <ADC_Disable+0x56>
 8001e5a:	6893      	ldr	r3, [r2, #8]
 8001e5c:	f023 4300 	bic.w	r3, r3, #2147483648	@ 0x80000000
 8001e60:	f023 033f 	bic.w	r3, r3, #63	@ 0x3f
 8001e64:	f043 0302 	orr.w	r3, r3, #2
 8001e68:	6093      	str	r3, [r2, #8]
 8001e6a:	2303      	movs	r3, #3
 8001e6c:	6013      	str	r3, [r2, #0]
 8001e6e:	f7ff fac5 	bl	80013fc <HAL_GetTick>
 8001e72:	4605      	mov	r5, r0
 8001e74:	6823      	ldr	r3, [r4, #0]
 8001e76:	689b      	ldr	r3, [r3, #8]
 8001e78:	07db      	lsls	r3, r3, #31
 8001e7a:	d5e5      	bpl.n	8001e48 <ADC_Disable+0x10>
 8001e7c:	f7ff fabe 	bl	80013fc <HAL_GetTick>
 8001e80:	1b40      	subs	r0, r0, r5
 8001e82:	2802      	cmp	r0, #2
 8001e84:	d9f6      	bls.n	8001e74 <ADC_Disable+0x3c>
 8001e86:	6823      	ldr	r3, [r4, #0]
 8001e88:	689b      	ldr	r3, [r3, #8]
 8001e8a:	07da      	lsls	r2, r3, #31
 8001e8c:	d5f2      	bpl.n	8001e74 <ADC_Disable+0x3c>
 8001e8e:	6de3      	ldr	r3, [r4, #92]	@ 0x5c
 8001e90:	f043 0310 	orr.w	r3, r3, #16
 8001e94:	65e3      	str	r3, [r4, #92]	@ 0x5c
 8001e96:	6e23      	ldr	r3, [r4, #96]	@ 0x60
 8001e98:	f043 0301 	orr.w	r3, r3, #1
 8001e9c:	6623      	str	r3, [r4, #96]	@ 0x60
 8001e9e:	2001      	movs	r0, #1
 8001ea0:	e7d3      	b.n	8001e4a <ADC_Disable+0x12>

08001ea2 <HAL_ADC_Stop>:
 8001ea2:	b510      	push	{r4, lr}
 8001ea4:	f890 3058 	ldrb.w	r3, [r0, #88]	@ 0x58
 8001ea8:	2b01      	cmp	r3, #1
 8001eaa:	4604      	mov	r4, r0
 8001eac:	d016      	beq.n	8001edc <HAL_ADC_Stop+0x3a>
 8001eae:	2301      	movs	r3, #1
 8001eb0:	f880 3058 	strb.w	r3, [r0, #88]	@ 0x58
 8001eb4:	2103      	movs	r1, #3
 8001eb6:	f7ff fe71 	bl	8001b9c <ADC_ConversionStop>
 8001eba:	b958      	cbnz	r0, 8001ed4 <HAL_ADC_Stop+0x32>
 8001ebc:	4620      	mov	r0, r4
 8001ebe:	f7ff ffbb 	bl	8001e38 <ADC_Disable>
 8001ec2:	b938      	cbnz	r0, 8001ed4 <HAL_ADC_Stop+0x32>
 8001ec4:	6de3      	ldr	r3, [r4, #92]	@ 0x5c
 8001ec6:	f423 5388 	bic.w	r3, r3, #4352	@ 0x1100
 8001eca:	f023 0301 	bic.w	r3, r3, #1
 8001ece:	f043 0301 	orr.w	r3, r3, #1
 8001ed2:	65e3      	str	r3, [r4, #92]	@ 0x5c
 8001ed4:	2300      	movs	r3, #0
 8001ed6:	f884 3058 	strb.w	r3, [r4, #88]	@ 0x58
 8001eda:	bd10      	pop	{r4, pc}
 8001edc:	2002      	movs	r0, #2
 8001ede:	e7fc      	b.n	8001eda <HAL_ADC_Stop+0x38>

08001ee0 <LL_ADC_SetChannelSamplingTime>:
 8001ee0:	b530      	push	{r4, r5, lr}
 8001ee2:	0dcc      	lsrs	r4, r1, #23
 8001ee4:	f004 0404 	and.w	r4, r4, #4
 8001ee8:	3014      	adds	r0, #20
 8001eea:	f3c1 5104 	ubfx	r1, r1, #20, #5
 8001eee:	5903      	ldr	r3, [r0, r4]
 8001ef0:	2507      	movs	r5, #7
 8001ef2:	408d      	lsls	r5, r1
 8001ef4:	ea23 0305 	bic.w	r3, r3, r5
 8001ef8:	408a      	lsls	r2, r1
 8001efa:	4313      	orrs	r3, r2
 8001efc:	5103      	str	r3, [r0, r4]
 8001efe:	bd30      	pop	{r4, r5, pc}

08001f00 <LL_ADC_IsEnabled>:
 8001f00:	6880      	ldr	r0, [r0, #8]
 8001f02:	f000 0001 	and.w	r0, r0, #1
 8001f06:	4770      	bx	lr

08001f08 <LL_ADC_REG_IsConversionOngoing>:
 8001f08:	6880      	ldr	r0, [r0, #8]
 8001f0a:	f3c0 0080 	ubfx	r0, r0, #2, #1
 8001f0e:	4770      	bx	lr

08001f10 <LL_ADC_INJ_IsConversionOngoing>:
 8001f10:	6880      	ldr	r0, [r0, #8]
 8001f12:	f3c0 00c0 	ubfx	r0, r0, #3, #1
 8001f16:	4770      	bx	lr

08001f18 <HAL_ADCEx_InjectedConfigChannel>:
 8001f18:	b5f7      	push	{r0, r1, r2, r4, r5, r6, r7, lr}
 8001f1a:	f890 3058 	ldrb.w	r3, [r0, #88]	@ 0x58
 8001f1e:	2200      	movs	r2, #0
 8001f20:	2b01      	cmp	r3, #1
 8001f22:	4607      	mov	r7, r0
 8001f24:	460d      	mov	r5, r1
 8001f26:	9201      	str	r2, [sp, #4]
 8001f28:	f000 824e 	beq.w	80023c8 <HAL_ADCEx_InjectedConfigChannel+0x4b0>
 8001f2c:	2301      	movs	r3, #1
 8001f2e:	f880 3058 	strb.w	r3, [r0, #88]	@ 0x58
 8001f32:	6943      	ldr	r3, [r0, #20]
 8001f34:	6849      	ldr	r1, [r1, #4]
 8001f36:	6804      	ldr	r4, [r0, #0]
 8001f38:	b113      	cbz	r3, 8001f40 <HAL_ADCEx_InjectedConfigChannel+0x28>
 8001f3a:	6a28      	ldr	r0, [r5, #32]
 8001f3c:	2801      	cmp	r0, #1
 8001f3e:	d146      	bne.n	8001fce <HAL_ADCEx_InjectedConfigChannel+0xb6>
 8001f40:	2909      	cmp	r1, #9
 8001f42:	d116      	bne.n	8001f72 <HAL_ADCEx_InjectedConfigChannel+0x5a>
 8001f44:	682b      	ldr	r3, [r5, #0]
 8001f46:	6aaa      	ldr	r2, [r5, #40]	@ 0x28
 8001f48:	0c5b      	lsrs	r3, r3, #17
 8001f4a:	f403 5378 	and.w	r3, r3, #15872	@ 0x3e00
 8001f4e:	b122      	cbz	r2, 8001f5a <HAL_ADCEx_InjectedConfigChannel+0x42>
 8001f50:	6ae9      	ldr	r1, [r5, #44]	@ 0x2c
 8001f52:	f002 027c 	and.w	r2, r2, #124	@ 0x7c
 8001f56:	430a      	orrs	r2, r1
 8001f58:	4313      	orrs	r3, r2
 8001f5a:	6ce2      	ldr	r2, [r4, #76]	@ 0x4c
 8001f5c:	f022 427b 	bic.w	r2, r2, #4211081216	@ 0xfb000000
 8001f60:	f422 026f 	bic.w	r2, r2, #15663104	@ 0xef0000
 8001f64:	f422 423f 	bic.w	r2, r2, #48896	@ 0xbf00
 8001f68:	f022 02ff 	bic.w	r2, r2, #255	@ 0xff
 8001f6c:	431a      	orrs	r2, r3
 8001f6e:	64e2      	str	r2, [r4, #76]	@ 0x4c
 8001f70:	667b      	str	r3, [r7, #100]	@ 0x64
 8001f72:	4620      	mov	r0, r4
 8001f74:	f7ff ffcc 	bl	8001f10 <LL_ADC_INJ_IsConversionOngoing>
 8001f78:	b978      	cbnz	r0, 8001f9a <HAL_ADCEx_InjectedConfigChannel+0x82>
 8001f7a:	f895 3026 	ldrb.w	r3, [r5, #38]	@ 0x26
 8001f7e:	f895 2025 	ldrb.w	r2, [r5, #37]	@ 0x25
 8001f82:	055b      	lsls	r3, r3, #21
 8001f84:	2a00      	cmp	r2, #0
 8001f86:	d149      	bne.n	800201c <HAL_ADCEx_InjectedConfigChannel+0x104>
 8001f88:	f895 1024 	ldrb.w	r1, [r5, #36]	@ 0x24
 8001f8c:	68e2      	ldr	r2, [r4, #12]
 8001f8e:	ea43 5301 	orr.w	r3, r3, r1, lsl #20
 8001f92:	f422 1240 	bic.w	r2, r2, #3145728	@ 0x300000
 8001f96:	4313      	orrs	r3, r2
 8001f98:	60e3      	str	r3, [r4, #12]
 8001f9a:	4620      	mov	r0, r4
 8001f9c:	f7ff ffb4 	bl	8001f08 <LL_ADC_REG_IsConversionOngoing>
 8001fa0:	4603      	mov	r3, r0
 8001fa2:	4620      	mov	r0, r4
 8001fa4:	f7ff ffb4 	bl	8001f10 <LL_ADC_INJ_IsConversionOngoing>
 8001fa8:	4303      	orrs	r3, r0
 8001faa:	f040 8133 	bne.w	8002214 <HAL_ADCEx_InjectedConfigChannel+0x2fc>
 8001fae:	6aab      	ldr	r3, [r5, #40]	@ 0x28
 8001fb0:	f895 6025 	ldrb.w	r6, [r5, #37]	@ 0x25
 8001fb4:	b113      	cbz	r3, 8001fbc <HAL_ADCEx_InjectedConfigChannel+0xa4>
 8001fb6:	6aeb      	ldr	r3, [r5, #44]	@ 0x2c
 8001fb8:	2b00      	cmp	r3, #0
 8001fba:	d131      	bne.n	8002020 <HAL_ADCEx_InjectedConfigChannel+0x108>
 8001fbc:	2e01      	cmp	r6, #1
 8001fbe:	68e3      	ldr	r3, [r4, #12]
 8001fc0:	f040 80bf 	bne.w	8002142 <HAL_ADCEx_InjectedConfigChannel+0x22a>
 8001fc4:	f043 7300 	orr.w	r3, r3, #33554432	@ 0x2000000
 8001fc8:	60e3      	str	r3, [r4, #12]
 8001fca:	2600      	movs	r6, #0
 8001fcc:	e02f      	b.n	800202e <HAL_ADCEx_InjectedConfigChannel+0x116>
 8001fce:	6ebb      	ldr	r3, [r7, #104]	@ 0x68
 8001fd0:	b94b      	cbnz	r3, 8001fe6 <HAL_ADCEx_InjectedConfigChannel+0xce>
 8001fd2:	e9c7 3019 	strd	r3, r0, [r7, #100]	@ 0x64
 8001fd6:	6aab      	ldr	r3, [r5, #40]	@ 0x28
 8001fd8:	1e42      	subs	r2, r0, #1
 8001fda:	b123      	cbz	r3, 8001fe6 <HAL_ADCEx_InjectedConfigChannel+0xce>
 8001fdc:	f003 037c 	and.w	r3, r3, #124	@ 0x7c
 8001fe0:	4313      	orrs	r3, r2
 8001fe2:	6aea      	ldr	r2, [r5, #44]	@ 0x2c
 8001fe4:	431a      	orrs	r2, r3
 8001fe6:	682b      	ldr	r3, [r5, #0]
 8001fe8:	6e78      	ldr	r0, [r7, #100]	@ 0x64
 8001fea:	f001 011f 	and.w	r1, r1, #31
 8001fee:	f3c3 6384 	ubfx	r3, r3, #26, #5
 8001ff2:	408b      	lsls	r3, r1
 8001ff4:	6eb9      	ldr	r1, [r7, #104]	@ 0x68
 8001ff6:	4303      	orrs	r3, r0
 8001ff8:	3901      	subs	r1, #1
 8001ffa:	4313      	orrs	r3, r2
 8001ffc:	66b9      	str	r1, [r7, #104]	@ 0x68
 8001ffe:	667b      	str	r3, [r7, #100]	@ 0x64
 8002000:	2900      	cmp	r1, #0
 8002002:	d1b6      	bne.n	8001f72 <HAL_ADCEx_InjectedConfigChannel+0x5a>
 8002004:	6ce2      	ldr	r2, [r4, #76]	@ 0x4c
 8002006:	f022 427b 	bic.w	r2, r2, #4211081216	@ 0xfb000000
 800200a:	f422 026f 	bic.w	r2, r2, #15663104	@ 0xef0000
 800200e:	f422 423f 	bic.w	r2, r2, #48896	@ 0xbf00
 8002012:	f022 02ff 	bic.w	r2, r2, #255	@ 0xff
 8002016:	4313      	orrs	r3, r2
 8002018:	64e3      	str	r3, [r4, #76]	@ 0x4c
 800201a:	e7aa      	b.n	8001f72 <HAL_ADCEx_InjectedConfigChannel+0x5a>
 800201c:	68e2      	ldr	r2, [r4, #12]
 800201e:	e7b8      	b.n	8001f92 <HAL_ADCEx_InjectedConfigChannel+0x7a>
 8002020:	2e01      	cmp	r6, #1
 8002022:	f040 808d 	bne.w	8002140 <HAL_ADCEx_InjectedConfigChannel+0x228>
 8002026:	6dfb      	ldr	r3, [r7, #92]	@ 0x5c
 8002028:	f043 0320 	orr.w	r3, r3, #32
 800202c:	65fb      	str	r3, [r7, #92]	@ 0x5c
 800202e:	f895 3030 	ldrb.w	r3, [r5, #48]	@ 0x30
 8002032:	2b01      	cmp	r3, #1
 8002034:	bf05      	ittet	eq
 8002036:	e9d5 310d 	ldrdeq	r3, r1, [r5, #52]	@ 0x34
 800203a:	6922      	ldreq	r2, [r4, #16]
 800203c:	6923      	ldrne	r3, [r4, #16]
 800203e:	430b      	orreq	r3, r1
 8002040:	bf03      	ittte	eq
 8002042:	f422 72ff 	biceq.w	r2, r2, #510	@ 0x1fe
 8002046:	4313      	orreq	r3, r2
 8002048:	f043 0302 	orreq.w	r3, r3, #2
 800204c:	f023 0302 	bicne.w	r3, r3, #2
 8002050:	6123      	str	r3, [r4, #16]
 8002052:	68aa      	ldr	r2, [r5, #8]
 8002054:	6829      	ldr	r1, [r5, #0]
 8002056:	f1b2 4f00 	cmp.w	r2, #2147483648	@ 0x80000000
 800205a:	d175      	bne.n	8002148 <HAL_ADCEx_InjectedConfigChannel+0x230>
 800205c:	2200      	movs	r2, #0
 800205e:	4620      	mov	r0, r4
 8002060:	f7ff ff3e 	bl	8001ee0 <LL_ADC_SetChannelSamplingTime>
 8002064:	6963      	ldr	r3, [r4, #20]
 8002066:	f043 4300 	orr.w	r3, r3, #2147483648	@ 0x80000000
 800206a:	6163      	str	r3, [r4, #20]
 800206c:	f8d5 c010 	ldr.w	ip, [r5, #16]
 8002070:	6969      	ldr	r1, [r5, #20]
 8002072:	68e0      	ldr	r0, [r4, #12]
 8002074:	682b      	ldr	r3, [r5, #0]
 8002076:	f1bc 0f04 	cmp.w	ip, #4
 800207a:	f104 0260 	add.w	r2, r4, #96	@ 0x60
 800207e:	d06a      	beq.n	8002156 <HAL_ADCEx_InjectedConfigChannel+0x23e>
 8002080:	f3c0 00c1 	ubfx	r0, r0, #3, #2
 8002084:	0040      	lsls	r0, r0, #1
 8002086:	f852 e02c 	ldr.w	lr, [r2, ip, lsl #2]
 800208a:	4081      	lsls	r1, r0
 800208c:	48b6      	ldr	r0, [pc, #728]	@ (8002368 <HAL_ADCEx_InjectedConfigChannel+0x450>)
 800208e:	f003 43f8 	and.w	r3, r3, #2080374784	@ 0x7c000000
 8002092:	ea0e 0000 	and.w	r0, lr, r0
 8002096:	4318      	orrs	r0, r3
 8002098:	ea41 0300 	orr.w	r3, r1, r0
 800209c:	f043 4300 	orr.w	r3, r3, #2147483648	@ 0x80000000
 80020a0:	f842 302c 	str.w	r3, [r2, ip, lsl #2]
 80020a4:	6929      	ldr	r1, [r5, #16]
 80020a6:	69a8      	ldr	r0, [r5, #24]
 80020a8:	f852 3021 	ldr.w	r3, [r2, r1, lsl #2]
 80020ac:	f023 7380 	bic.w	r3, r3, #16777216	@ 0x1000000
 80020b0:	4303      	orrs	r3, r0
 80020b2:	f842 3021 	str.w	r3, [r2, r1, lsl #2]
 80020b6:	7f29      	ldrb	r1, [r5, #28]
 80020b8:	6928      	ldr	r0, [r5, #16]
 80020ba:	f101 3cff 	add.w	ip, r1, #4294967295
 80020be:	f852 3020 	ldr.w	r3, [r2, r0, lsl #2]
 80020c2:	f1dc 0100 	rsbs	r1, ip, #0
 80020c6:	eb41 010c 	adc.w	r1, r1, ip
 80020ca:	f023 7300 	bic.w	r3, r3, #33554432	@ 0x2000000
 80020ce:	ea43 6341 	orr.w	r3, r3, r1, lsl #25
 80020d2:	f842 3020 	str.w	r3, [r2, r0, lsl #2]
 80020d6:	4620      	mov	r0, r4
 80020d8:	f7ff ff12 	bl	8001f00 <LL_ADC_IsEnabled>
 80020dc:	2800      	cmp	r0, #0
 80020de:	f040 80cd 	bne.w	800227c <HAL_ADCEx_InjectedConfigChannel+0x364>
 80020e2:	f8d5 c00c 	ldr.w	ip, [r5, #12]
 80020e6:	682b      	ldr	r3, [r5, #0]
 80020e8:	4aa0      	ldr	r2, [pc, #640]	@ (800236c <HAL_ADCEx_InjectedConfigChannel+0x454>)
 80020ea:	f8d4 10b0 	ldr.w	r1, [r4, #176]	@ 0xb0
 80020ee:	f00c 0e18 	and.w	lr, ip, #24
 80020f2:	f3c3 0012 	ubfx	r0, r3, #0, #19
 80020f6:	fa22 f20e 	lsr.w	r2, r2, lr
 80020fa:	401a      	ands	r2, r3
 80020fc:	ea21 0100 	bic.w	r1, r1, r0
 8002100:	430a      	orrs	r2, r1
 8002102:	f8c4 20b0 	str.w	r2, [r4, #176]	@ 0xb0
 8002106:	4a9a      	ldr	r2, [pc, #616]	@ (8002370 <HAL_ADCEx_InjectedConfigChannel+0x458>)
 8002108:	4594      	cmp	ip, r2
 800210a:	f040 80b7 	bne.w	800227c <HAL_ADCEx_InjectedConfigChannel+0x364>
 800210e:	2800      	cmp	r0, #0
 8002110:	f040 8082 	bne.w	8002218 <HAL_ADCEx_InjectedConfigChannel+0x300>
 8002114:	0e9a      	lsrs	r2, r3, #26
 8002116:	3201      	adds	r2, #1
 8002118:	f002 011f 	and.w	r1, r2, #31
 800211c:	2001      	movs	r0, #1
 800211e:	2909      	cmp	r1, #9
 8002120:	ea4f 6282 	mov.w	r2, r2, lsl #26
 8002124:	fa01 f300 	lsl.w	r3, r1, r0
 8002128:	f240 809c 	bls.w	8002264 <HAL_ADCEx_InjectedConfigChannel+0x34c>
 800212c:	4088      	lsls	r0, r1
 800212e:	f002 42f8 	and.w	r2, r2, #2080374784	@ 0x7c000000
 8002132:	4419      	add	r1, r3
 8002134:	4302      	orrs	r2, r0
 8002136:	391e      	subs	r1, #30
 8002138:	0509      	lsls	r1, r1, #20
 800213a:	f041 7300 	orr.w	r3, r1, #33554432	@ 0x2000000
 800213e:	e097      	b.n	8002270 <HAL_ADCEx_InjectedConfigChannel+0x358>
 8002140:	68e3      	ldr	r3, [r4, #12]
 8002142:	f023 7300 	bic.w	r3, r3, #33554432	@ 0x2000000
 8002146:	e73f      	b.n	8001fc8 <HAL_ADCEx_InjectedConfigChannel+0xb0>
 8002148:	4620      	mov	r0, r4
 800214a:	f7ff fec9 	bl	8001ee0 <LL_ADC_SetChannelSamplingTime>
 800214e:	6963      	ldr	r3, [r4, #20]
 8002150:	f023 4300 	bic.w	r3, r3, #2147483648	@ 0x80000000
 8002154:	e789      	b.n	800206a <HAL_ADCEx_InjectedConfigChannel+0x152>
 8002156:	6e21      	ldr	r1, [r4, #96]	@ 0x60
 8002158:	6e21      	ldr	r1, [r4, #96]	@ 0x60
 800215a:	f3c3 0012 	ubfx	r0, r3, #0, #19
 800215e:	f3c1 6184 	ubfx	r1, r1, #26, #5
 8002162:	2800      	cmp	r0, #0
 8002164:	d139      	bne.n	80021da <HAL_ADCEx_InjectedConfigChannel+0x2c2>
 8002166:	f3c3 6384 	ubfx	r3, r3, #26, #5
 800216a:	4299      	cmp	r1, r3
 800216c:	bf02      	ittt	eq
 800216e:	6e23      	ldreq	r3, [r4, #96]	@ 0x60
 8002170:	f023 4300 	biceq.w	r3, r3, #2147483648	@ 0x80000000
 8002174:	6623      	streq	r3, [r4, #96]	@ 0x60
 8002176:	6e63      	ldr	r3, [r4, #100]	@ 0x64
 8002178:	682b      	ldr	r3, [r5, #0]
 800217a:	6e61      	ldr	r1, [r4, #100]	@ 0x64
 800217c:	f3c3 0012 	ubfx	r0, r3, #0, #19
 8002180:	f3c1 6184 	ubfx	r1, r1, #26, #5
 8002184:	2800      	cmp	r0, #0
 8002186:	d12f      	bne.n	80021e8 <HAL_ADCEx_InjectedConfigChannel+0x2d0>
 8002188:	f3c3 6384 	ubfx	r3, r3, #26, #5
 800218c:	4299      	cmp	r1, r3
 800218e:	bf02      	ittt	eq
 8002190:	6e63      	ldreq	r3, [r4, #100]	@ 0x64
 8002192:	f023 4300 	biceq.w	r3, r3, #2147483648	@ 0x80000000
 8002196:	6663      	streq	r3, [r4, #100]	@ 0x64
 8002198:	6893      	ldr	r3, [r2, #8]
 800219a:	682b      	ldr	r3, [r5, #0]
 800219c:	6891      	ldr	r1, [r2, #8]
 800219e:	f3c3 0012 	ubfx	r0, r3, #0, #19
 80021a2:	f3c1 6184 	ubfx	r1, r1, #26, #5
 80021a6:	bb30      	cbnz	r0, 80021f6 <HAL_ADCEx_InjectedConfigChannel+0x2de>
 80021a8:	f3c3 6384 	ubfx	r3, r3, #26, #5
 80021ac:	4299      	cmp	r1, r3
 80021ae:	bf02      	ittt	eq
 80021b0:	6893      	ldreq	r3, [r2, #8]
 80021b2:	f023 4300 	biceq.w	r3, r3, #2147483648	@ 0x80000000
 80021b6:	6093      	streq	r3, [r2, #8]
 80021b8:	68d3      	ldr	r3, [r2, #12]
 80021ba:	682b      	ldr	r3, [r5, #0]
 80021bc:	68d1      	ldr	r1, [r2, #12]
 80021be:	f3c3 0012 	ubfx	r0, r3, #0, #19
 80021c2:	f3c1 6184 	ubfx	r1, r1, #26, #5
 80021c6:	b9e8      	cbnz	r0, 8002204 <HAL_ADCEx_InjectedConfigChannel+0x2ec>
 80021c8:	f3c3 6384 	ubfx	r3, r3, #26, #5
 80021cc:	4299      	cmp	r1, r3
 80021ce:	d182      	bne.n	80020d6 <HAL_ADCEx_InjectedConfigChannel+0x1be>
 80021d0:	68d3      	ldr	r3, [r2, #12]
 80021d2:	f023 4300 	bic.w	r3, r3, #2147483648	@ 0x80000000
 80021d6:	60d3      	str	r3, [r2, #12]
 80021d8:	e77d      	b.n	80020d6 <HAL_ADCEx_InjectedConfigChannel+0x1be>
 80021da:	fa93 f3a3 	rbit	r3, r3
 80021de:	2b00      	cmp	r3, #0
 80021e0:	d0c9      	beq.n	8002176 <HAL_ADCEx_InjectedConfigChannel+0x25e>
 80021e2:	fab3 f383 	clz	r3, r3
 80021e6:	e7c0      	b.n	800216a <HAL_ADCEx_InjectedConfigChannel+0x252>
 80021e8:	fa93 f3a3 	rbit	r3, r3
 80021ec:	2b00      	cmp	r3, #0
 80021ee:	d0d3      	beq.n	8002198 <HAL_ADCEx_InjectedConfigChannel+0x280>
 80021f0:	fab3 f383 	clz	r3, r3
 80021f4:	e7ca      	b.n	800218c <HAL_ADCEx_InjectedConfigChannel+0x274>
 80021f6:	fa93 f3a3 	rbit	r3, r3
 80021fa:	2b00      	cmp	r3, #0
 80021fc:	d0dc      	beq.n	80021b8 <HAL_ADCEx_InjectedConfigChannel+0x2a0>
 80021fe:	fab3 f383 	clz	r3, r3
 8002202:	e7d3      	b.n	80021ac <HAL_ADCEx_InjectedConfigChannel+0x294>
 8002204:	fa93 f3a3 	rbit	r3, r3
 8002208:	2b00      	cmp	r3, #0
 800220a:	f43f af64 	beq.w	80020d6 <HAL_ADCEx_InjectedConfigChannel+0x1be>
 800220e:	fab3 f383 	clz	r3, r3
 8002212:	e7db      	b.n	80021cc <HAL_ADCEx_InjectedConfigChannel+0x2b4>
 8002214:	2600      	movs	r6, #0
 8002216:	e75e      	b.n	80020d6 <HAL_ADCEx_InjectedConfigChannel+0x1be>
 8002218:	fa93 f2a3 	rbit	r2, r3
 800221c:	b132      	cbz	r2, 800222c <HAL_ADCEx_InjectedConfigChannel+0x314>
 800221e:	fab2 f282 	clz	r2, r2
 8002222:	3201      	adds	r2, #1
 8002224:	f002 021f 	and.w	r2, r2, #31
 8002228:	2a09      	cmp	r2, #9
 800222a:	d85e      	bhi.n	80022ea <HAL_ADCEx_InjectedConfigChannel+0x3d2>
 800222c:	fa93 f1a3 	rbit	r1, r3
 8002230:	fab1 f181 	clz	r1, r1
 8002234:	3101      	adds	r1, #1
 8002236:	0689      	lsls	r1, r1, #26
 8002238:	f001 41f8 	and.w	r1, r1, #2080374784	@ 0x7c000000
 800223c:	fa93 f0a3 	rbit	r0, r3
 8002240:	fab0 f080 	clz	r0, r0
 8002244:	3001      	adds	r0, #1
 8002246:	f000 001f 	and.w	r0, r0, #31
 800224a:	2201      	movs	r2, #1
 800224c:	4082      	lsls	r2, r0
 800224e:	430a      	orrs	r2, r1
 8002250:	fa93 f3a3 	rbit	r3, r3
 8002254:	fab3 f383 	clz	r3, r3
 8002258:	3301      	adds	r3, #1
 800225a:	f003 031f 	and.w	r3, r3, #31
 800225e:	eb03 0343 	add.w	r3, r3, r3, lsl #1
 8002262:	e004      	b.n	800226e <HAL_ADCEx_InjectedConfigChannel+0x356>
 8002264:	f002 42f8 	and.w	r2, r2, #2080374784	@ 0x7c000000
 8002268:	4088      	lsls	r0, r1
 800226a:	4302      	orrs	r2, r0
 800226c:	440b      	add	r3, r1
 800226e:	051b      	lsls	r3, r3, #20
 8002270:	ea43 0102 	orr.w	r1, r3, r2
 8002274:	4620      	mov	r0, r4
 8002276:	68aa      	ldr	r2, [r5, #8]
 8002278:	f7ff fe32 	bl	8001ee0 <LL_ADC_SetChannelSamplingTime>
 800227c:	682a      	ldr	r2, [r5, #0]
 800227e:	4b3d      	ldr	r3, [pc, #244]	@ (8002374 <HAL_ADCEx_InjectedConfigChannel+0x45c>)
 8002280:	421a      	tst	r2, r3
 8002282:	d02c      	beq.n	80022de <HAL_ADCEx_InjectedConfigChannel+0x3c6>
 8002284:	f1b4 4fa0 	cmp.w	r4, #1342177280	@ 0x50000000
 8002288:	d04e      	beq.n	8002328 <HAL_ADCEx_InjectedConfigChannel+0x410>
 800228a:	483b      	ldr	r0, [pc, #236]	@ (8002378 <HAL_ADCEx_InjectedConfigChannel+0x460>)
 800228c:	4b3b      	ldr	r3, [pc, #236]	@ (800237c <HAL_ADCEx_InjectedConfigChannel+0x464>)
 800228e:	493c      	ldr	r1, [pc, #240]	@ (8002380 <HAL_ADCEx_InjectedConfigChannel+0x468>)
 8002290:	4284      	cmp	r4, r0
 8002292:	bf18      	it	ne
 8002294:	460b      	movne	r3, r1
 8002296:	483b      	ldr	r0, [pc, #236]	@ (8002384 <HAL_ADCEx_InjectedConfigChannel+0x46c>)
 8002298:	689b      	ldr	r3, [r3, #8]
 800229a:	4282      	cmp	r2, r0
 800229c:	f003 71e0 	and.w	r1, r3, #29360128	@ 0x1c00000
 80022a0:	d002      	beq.n	80022a8 <HAL_ADCEx_InjectedConfigChannel+0x390>
 80022a2:	4839      	ldr	r0, [pc, #228]	@ (8002388 <HAL_ADCEx_InjectedConfigChannel+0x470>)
 80022a4:	4282      	cmp	r2, r0
 80022a6:	d146      	bne.n	8002336 <HAL_ADCEx_InjectedConfigChannel+0x41e>
 80022a8:	0218      	lsls	r0, r3, #8
 80022aa:	d418      	bmi.n	80022de <HAL_ADCEx_InjectedConfigChannel+0x3c6>
 80022ac:	f1b4 4fa0 	cmp.w	r4, #1342177280	@ 0x50000000
 80022b0:	d03c      	beq.n	800232c <HAL_ADCEx_InjectedConfigChannel+0x414>
 80022b2:	4b36      	ldr	r3, [pc, #216]	@ (800238c <HAL_ADCEx_InjectedConfigChannel+0x474>)
 80022b4:	429c      	cmp	r4, r3
 80022b6:	d112      	bne.n	80022de <HAL_ADCEx_InjectedConfigChannel+0x3c6>
 80022b8:	4a31      	ldr	r2, [pc, #196]	@ (8002380 <HAL_ADCEx_InjectedConfigChannel+0x468>)
 80022ba:	6893      	ldr	r3, [r2, #8]
 80022bc:	f023 73e0 	bic.w	r3, r3, #29360128	@ 0x1c00000
 80022c0:	430b      	orrs	r3, r1
 80022c2:	f443 0300 	orr.w	r3, r3, #8388608	@ 0x800000
 80022c6:	6093      	str	r3, [r2, #8]
 80022c8:	4b31      	ldr	r3, [pc, #196]	@ (8002390 <HAL_ADCEx_InjectedConfigChannel+0x478>)
 80022ca:	4a32      	ldr	r2, [pc, #200]	@ (8002394 <HAL_ADCEx_InjectedConfigChannel+0x47c>)
 80022cc:	681b      	ldr	r3, [r3, #0]
 80022ce:	fbb3 f3f2 	udiv	r3, r3, r2
 80022d2:	220c      	movs	r2, #12
 80022d4:	4353      	muls	r3, r2
 80022d6:	3318      	adds	r3, #24
 80022d8:	9301      	str	r3, [sp, #4]
 80022da:	9b01      	ldr	r3, [sp, #4]
 80022dc:	bb43      	cbnz	r3, 8002330 <HAL_ADCEx_InjectedConfigChannel+0x418>
 80022de:	2300      	movs	r3, #0
 80022e0:	f887 3058 	strb.w	r3, [r7, #88]	@ 0x58
 80022e4:	4630      	mov	r0, r6
 80022e6:	b003      	add	sp, #12
 80022e8:	bdf0      	pop	{r4, r5, r6, r7, pc}
 80022ea:	fa93 f1a3 	rbit	r1, r3
 80022ee:	fab1 f181 	clz	r1, r1
 80022f2:	3101      	adds	r1, #1
 80022f4:	0689      	lsls	r1, r1, #26
 80022f6:	f001 41f8 	and.w	r1, r1, #2080374784	@ 0x7c000000
 80022fa:	fa93 f0a3 	rbit	r0, r3
 80022fe:	fab0 f080 	clz	r0, r0
 8002302:	3001      	adds	r0, #1
 8002304:	f000 001f 	and.w	r0, r0, #31
 8002308:	2201      	movs	r2, #1
 800230a:	4082      	lsls	r2, r0
 800230c:	430a      	orrs	r2, r1
 800230e:	fa93 f3a3 	rbit	r3, r3
 8002312:	fab3 f383 	clz	r3, r3
 8002316:	3301      	adds	r3, #1
 8002318:	f003 031f 	and.w	r3, r3, #31
 800231c:	2103      	movs	r1, #3
 800231e:	f06f 001d 	mvn.w	r0, #29
 8002322:	fb11 0103 	smlabb	r1, r1, r3, r0
 8002326:	e707      	b.n	8002138 <HAL_ADCEx_InjectedConfigChannel+0x220>
 8002328:	4b14      	ldr	r3, [pc, #80]	@ (800237c <HAL_ADCEx_InjectedConfigChannel+0x464>)
 800232a:	e7b4      	b.n	8002296 <HAL_ADCEx_InjectedConfigChannel+0x37e>
 800232c:	4a13      	ldr	r2, [pc, #76]	@ (800237c <HAL_ADCEx_InjectedConfigChannel+0x464>)
 800232e:	e7c4      	b.n	80022ba <HAL_ADCEx_InjectedConfigChannel+0x3a2>
 8002330:	9b01      	ldr	r3, [sp, #4]
 8002332:	3b01      	subs	r3, #1
 8002334:	e7d0      	b.n	80022d8 <HAL_ADCEx_InjectedConfigChannel+0x3c0>
 8002336:	4818      	ldr	r0, [pc, #96]	@ (8002398 <HAL_ADCEx_InjectedConfigChannel+0x480>)
 8002338:	4282      	cmp	r2, r0
 800233a:	d12f      	bne.n	800239c <HAL_ADCEx_InjectedConfigChannel+0x484>
 800233c:	01da      	lsls	r2, r3, #7
 800233e:	d4ce      	bmi.n	80022de <HAL_ADCEx_InjectedConfigChannel+0x3c6>
 8002340:	f1b4 4fa0 	cmp.w	r4, #1342177280	@ 0x50000000
 8002344:	d00d      	beq.n	8002362 <HAL_ADCEx_InjectedConfigChannel+0x44a>
 8002346:	480c      	ldr	r0, [pc, #48]	@ (8002378 <HAL_ADCEx_InjectedConfigChannel+0x460>)
 8002348:	4a0c      	ldr	r2, [pc, #48]	@ (800237c <HAL_ADCEx_InjectedConfigChannel+0x464>)
 800234a:	4b0d      	ldr	r3, [pc, #52]	@ (8002380 <HAL_ADCEx_InjectedConfigChannel+0x468>)
 800234c:	4284      	cmp	r4, r0
 800234e:	bf18      	it	ne
 8002350:	461a      	movne	r2, r3
 8002352:	6893      	ldr	r3, [r2, #8]
 8002354:	f023 73e0 	bic.w	r3, r3, #29360128	@ 0x1c00000
 8002358:	430b      	orrs	r3, r1
 800235a:	f043 7380 	orr.w	r3, r3, #16777216	@ 0x1000000
 800235e:	6093      	str	r3, [r2, #8]
 8002360:	e7bd      	b.n	80022de <HAL_ADCEx_InjectedConfigChannel+0x3c6>
 8002362:	4a06      	ldr	r2, [pc, #24]	@ (800237c <HAL_ADCEx_InjectedConfigChannel+0x464>)
 8002364:	e7f5      	b.n	8002352 <HAL_ADCEx_InjectedConfigChannel+0x43a>
 8002366:	bf00      	nop
 8002368:	03fff000 	.word	0x03fff000
 800236c:	0007ffff 	.word	0x0007ffff
 8002370:	407f0000 	.word	0x407f0000
 8002374:	80080000 	.word	0x80080000
 8002378:	50000100 	.word	0x50000100
 800237c:	50000300 	.word	0x50000300
 8002380:	50000700 	.word	0x50000700
 8002384:	c3210000 	.word	0xc3210000
 8002388:	90c00010 	.word	0x90c00010
 800238c:	50000600 	.word	0x50000600
 8002390:	20000010 	.word	0x20000010
 8002394:	00030d40 	.word	0x00030d40
 8002398:	c7520000 	.word	0xc7520000
 800239c:	480b      	ldr	r0, [pc, #44]	@ (80023cc <HAL_ADCEx_InjectedConfigChannel+0x4b4>)
 800239e:	4282      	cmp	r2, r0
 80023a0:	d19d      	bne.n	80022de <HAL_ADCEx_InjectedConfigChannel+0x3c6>
 80023a2:	025b      	lsls	r3, r3, #9
 80023a4:	d49b      	bmi.n	80022de <HAL_ADCEx_InjectedConfigChannel+0x3c6>
 80023a6:	4b0a      	ldr	r3, [pc, #40]	@ (80023d0 <HAL_ADCEx_InjectedConfigChannel+0x4b8>)
 80023a8:	429c      	cmp	r4, r3
 80023aa:	d098      	beq.n	80022de <HAL_ADCEx_InjectedConfigChannel+0x3c6>
 80023ac:	4a09      	ldr	r2, [pc, #36]	@ (80023d4 <HAL_ADCEx_InjectedConfigChannel+0x4bc>)
 80023ae:	f503 7300 	add.w	r3, r3, #512	@ 0x200
 80023b2:	f1b4 4fa0 	cmp.w	r4, #1342177280	@ 0x50000000
 80023b6:	bf08      	it	eq
 80023b8:	461a      	moveq	r2, r3
 80023ba:	6893      	ldr	r3, [r2, #8]
 80023bc:	f023 73e0 	bic.w	r3, r3, #29360128	@ 0x1c00000
 80023c0:	430b      	orrs	r3, r1
 80023c2:	f443 0380 	orr.w	r3, r3, #4194304	@ 0x400000
 80023c6:	e7ca      	b.n	800235e <HAL_ADCEx_InjectedConfigChannel+0x446>
 80023c8:	2602      	movs	r6, #2
 80023ca:	e78b      	b.n	80022e4 <HAL_ADCEx_InjectedConfigChannel+0x3cc>
 80023cc:	cb840000 	.word	0xcb840000
 80023d0:	50000100 	.word	0x50000100
 80023d4:	50000700 	.word	0x50000700

080023d8 <HAL_ADCEx_MultiModeConfigChannel>:
 80023d8:	b5f0      	push	{r4, r5, r6, r7, lr}
 80023da:	f890 2058 	ldrb.w	r2, [r0, #88]	@ 0x58
 80023de:	2a01      	cmp	r2, #1
 80023e0:	b09d      	sub	sp, #116	@ 0x74
 80023e2:	4603      	mov	r3, r0
 80023e4:	f000 8082 	beq.w	80024ec <HAL_ADCEx_MultiModeConfigChannel+0x114>
 80023e8:	681c      	ldr	r4, [r3, #0]
 80023ea:	2200      	movs	r2, #0
 80023ec:	2001      	movs	r0, #1
 80023ee:	f1b4 4fa0 	cmp.w	r4, #1342177280	@ 0x50000000
 80023f2:	9218      	str	r2, [sp, #96]	@ 0x60
 80023f4:	f883 0058 	strb.w	r0, [r3, #88]	@ 0x58
 80023f8:	9219      	str	r2, [sp, #100]	@ 0x64
 80023fa:	d00a      	beq.n	8002412 <HAL_ADCEx_MultiModeConfigChannel+0x3a>
 80023fc:	4d3c      	ldr	r5, [pc, #240]	@ (80024f0 <HAL_ADCEx_MultiModeConfigChannel+0x118>)
 80023fe:	42ac      	cmp	r4, r5
 8002400:	d034      	beq.n	800246c <HAL_ADCEx_MultiModeConfigChannel+0x94>
 8002402:	6dd9      	ldr	r1, [r3, #92]	@ 0x5c
 8002404:	f041 0120 	orr.w	r1, r1, #32
 8002408:	65d9      	str	r1, [r3, #92]	@ 0x5c
 800240a:	f883 2058 	strb.w	r2, [r3, #88]	@ 0x58
 800240e:	b01d      	add	sp, #116	@ 0x74
 8002410:	bdf0      	pop	{r4, r5, r6, r7, pc}
 8002412:	4838      	ldr	r0, [pc, #224]	@ (80024f4 <HAL_ADCEx_MultiModeConfigChannel+0x11c>)
 8002414:	f7ff fd78 	bl	8001f08 <LL_ADC_REG_IsConversionOngoing>
 8002418:	4602      	mov	r2, r0
 800241a:	4620      	mov	r0, r4
 800241c:	f7ff fd74 	bl	8001f08 <LL_ADC_REG_IsConversionOngoing>
 8002420:	4310      	orrs	r0, r2
 8002422:	d15d      	bne.n	80024e0 <HAL_ADCEx_MultiModeConfigChannel+0x108>
 8002424:	4a34      	ldr	r2, [pc, #208]	@ (80024f8 <HAL_ADCEx_MultiModeConfigChannel+0x120>)
 8002426:	4835      	ldr	r0, [pc, #212]	@ (80024fc <HAL_ADCEx_MultiModeConfigChannel+0x124>)
 8002428:	680d      	ldr	r5, [r1, #0]
 800242a:	f1b4 4fa0 	cmp.w	r4, #1342177280	@ 0x50000000
 800242e:	bf18      	it	ne
 8002430:	4602      	movne	r2, r0
 8002432:	b38d      	cbz	r5, 8002498 <HAL_ADCEx_MultiModeConfigChannel+0xc0>
 8002434:	6896      	ldr	r6, [r2, #8]
 8002436:	f893 7038 	ldrb.w	r7, [r3, #56]	@ 0x38
 800243a:	6848      	ldr	r0, [r1, #4]
 800243c:	f426 4660 	bic.w	r6, r6, #57344	@ 0xe000
 8002440:	ea40 3047 	orr.w	r0, r0, r7, lsl #13
 8002444:	4330      	orrs	r0, r6
 8002446:	f1b4 4fa0 	cmp.w	r4, #1342177280	@ 0x50000000
 800244a:	6090      	str	r0, [r2, #8]
 800244c:	d110      	bne.n	8002470 <HAL_ADCEx_MultiModeConfigChannel+0x98>
 800244e:	4620      	mov	r0, r4
 8002450:	f7ff fd56 	bl	8001f00 <LL_ADC_IsEnabled>
 8002454:	4604      	mov	r4, r0
 8002456:	4827      	ldr	r0, [pc, #156]	@ (80024f4 <HAL_ADCEx_MultiModeConfigChannel+0x11c>)
 8002458:	f7ff fd52 	bl	8001f00 <LL_ADC_IsEnabled>
 800245c:	4304      	orrs	r4, r0
 800245e:	bf0c      	ite	eq
 8002460:	2001      	moveq	r0, #1
 8002462:	2000      	movne	r0, #0
 8002464:	b970      	cbnz	r0, 8002484 <HAL_ADCEx_MultiModeConfigChannel+0xac>
 8002466:	2000      	movs	r0, #0
 8002468:	2200      	movs	r2, #0
 800246a:	e7ce      	b.n	800240a <HAL_ADCEx_MultiModeConfigChannel+0x32>
 800246c:	4824      	ldr	r0, [pc, #144]	@ (8002500 <HAL_ADCEx_MultiModeConfigChannel+0x128>)
 800246e:	e7d1      	b.n	8002414 <HAL_ADCEx_MultiModeConfigChannel+0x3c>
 8002470:	481f      	ldr	r0, [pc, #124]	@ (80024f0 <HAL_ADCEx_MultiModeConfigChannel+0x118>)
 8002472:	f7ff fd45 	bl	8001f00 <LL_ADC_IsEnabled>
 8002476:	4604      	mov	r4, r0
 8002478:	4821      	ldr	r0, [pc, #132]	@ (8002500 <HAL_ADCEx_MultiModeConfigChannel+0x128>)
 800247a:	f7ff fd41 	bl	8001f00 <LL_ADC_IsEnabled>
 800247e:	4304      	orrs	r4, r0
 8002480:	4820      	ldr	r0, [pc, #128]	@ (8002504 <HAL_ADCEx_MultiModeConfigChannel+0x12c>)
 8002482:	e7e9      	b.n	8002458 <HAL_ADCEx_MultiModeConfigChannel+0x80>
 8002484:	6890      	ldr	r0, [r2, #8]
 8002486:	6889      	ldr	r1, [r1, #8]
 8002488:	f420 6071 	bic.w	r0, r0, #3856	@ 0xf10
 800248c:	4329      	orrs	r1, r5
 800248e:	f020 000f 	bic.w	r0, r0, #15
 8002492:	4301      	orrs	r1, r0
 8002494:	6091      	str	r1, [r2, #8]
 8002496:	e7e6      	b.n	8002466 <HAL_ADCEx_MultiModeConfigChannel+0x8e>
 8002498:	6891      	ldr	r1, [r2, #8]
 800249a:	f1b4 4fa0 	cmp.w	r4, #1342177280	@ 0x50000000
 800249e:	f421 4160 	bic.w	r1, r1, #57344	@ 0xe000
 80024a2:	6091      	str	r1, [r2, #8]
 80024a4:	d112      	bne.n	80024cc <HAL_ADCEx_MultiModeConfigChannel+0xf4>
 80024a6:	4620      	mov	r0, r4
 80024a8:	f7ff fd2a 	bl	8001f00 <LL_ADC_IsEnabled>
 80024ac:	4601      	mov	r1, r0
 80024ae:	4811      	ldr	r0, [pc, #68]	@ (80024f4 <HAL_ADCEx_MultiModeConfigChannel+0x11c>)
 80024b0:	f7ff fd26 	bl	8001f00 <LL_ADC_IsEnabled>
 80024b4:	4301      	orrs	r1, r0
 80024b6:	bf0c      	ite	eq
 80024b8:	2101      	moveq	r1, #1
 80024ba:	2100      	movne	r1, #0
 80024bc:	2900      	cmp	r1, #0
 80024be:	d0d2      	beq.n	8002466 <HAL_ADCEx_MultiModeConfigChannel+0x8e>
 80024c0:	6891      	ldr	r1, [r2, #8]
 80024c2:	f421 6171 	bic.w	r1, r1, #3856	@ 0xf10
 80024c6:	f021 010f 	bic.w	r1, r1, #15
 80024ca:	e7e3      	b.n	8002494 <HAL_ADCEx_MultiModeConfigChannel+0xbc>
 80024cc:	4808      	ldr	r0, [pc, #32]	@ (80024f0 <HAL_ADCEx_MultiModeConfigChannel+0x118>)
 80024ce:	f7ff fd17 	bl	8001f00 <LL_ADC_IsEnabled>
 80024d2:	4601      	mov	r1, r0
 80024d4:	480a      	ldr	r0, [pc, #40]	@ (8002500 <HAL_ADCEx_MultiModeConfigChannel+0x128>)
 80024d6:	f7ff fd13 	bl	8001f00 <LL_ADC_IsEnabled>
 80024da:	4301      	orrs	r1, r0
 80024dc:	4809      	ldr	r0, [pc, #36]	@ (8002504 <HAL_ADCEx_MultiModeConfigChannel+0x12c>)
 80024de:	e7e7      	b.n	80024b0 <HAL_ADCEx_MultiModeConfigChannel+0xd8>
 80024e0:	6dda      	ldr	r2, [r3, #92]	@ 0x5c
 80024e2:	f042 0220 	orr.w	r2, r2, #32
 80024e6:	65da      	str	r2, [r3, #92]	@ 0x5c
 80024e8:	2001      	movs	r0, #1
 80024ea:	e7bd      	b.n	8002468 <HAL_ADCEx_MultiModeConfigChannel+0x90>
 80024ec:	2002      	movs	r0, #2
 80024ee:	e78e      	b.n	800240e <HAL_ADCEx_MultiModeConfigChannel+0x36>
 80024f0:	50000400 	.word	0x50000400
 80024f4:	50000100 	.word	0x50000100
 80024f8:	50000300 	.word	0x50000300
 80024fc:	50000700 	.word	0x50000700
 8002500:	50000500 	.word	0x50000500
 8002504:	50000600 	.word	0x50000600

08002508 <HAL_NVIC_SetPriorityGrouping>:
 8002508:	4907      	ldr	r1, [pc, #28]	@ (8002528 <HAL_NVIC_SetPriorityGrouping+0x20>)
 800250a:	68ca      	ldr	r2, [r1, #12]
 800250c:	f422 62e0 	bic.w	r2, r2, #1792	@ 0x700
 8002510:	0203      	lsls	r3, r0, #8
 8002512:	0412      	lsls	r2, r2, #16
 8002514:	f403 63e0 	and.w	r3, r3, #1792	@ 0x700
 8002518:	0c12      	lsrs	r2, r2, #16
 800251a:	4313      	orrs	r3, r2
 800251c:	f043 63bf 	orr.w	r3, r3, #100139008	@ 0x5f80000
 8002520:	f443 3300 	orr.w	r3, r3, #131072	@ 0x20000
 8002524:	60cb      	str	r3, [r1, #12]
 8002526:	4770      	bx	lr
 8002528:	e000ed00 	.word	0xe000ed00

0800252c <HAL_NVIC_SetPriority>:
 800252c:	4b16      	ldr	r3, [pc, #88]	@ (8002588 <HAL_NVIC_SetPriority+0x5c>)
 800252e:	b530      	push	{r4, r5, lr}
 8002530:	68dc      	ldr	r4, [r3, #12]
 8002532:	f3c4 2402 	ubfx	r4, r4, #8, #3
 8002536:	f1c4 0307 	rsb	r3, r4, #7
 800253a:	1d25      	adds	r5, r4, #4
 800253c:	2b04      	cmp	r3, #4
 800253e:	bf28      	it	cs
 8002540:	2304      	movcs	r3, #4
 8002542:	2d06      	cmp	r5, #6
 8002544:	f04f 35ff 	mov.w	r5, #4294967295
 8002548:	bf8c      	ite	hi
 800254a:	3c03      	subhi	r4, #3
 800254c:	2400      	movls	r4, #0
 800254e:	fa05 f303 	lsl.w	r3, r5, r3
 8002552:	ea21 0303 	bic.w	r3, r1, r3
 8002556:	40a5      	lsls	r5, r4
 8002558:	ea22 0205 	bic.w	r2, r2, r5
 800255c:	40a3      	lsls	r3, r4
 800255e:	2800      	cmp	r0, #0
 8002560:	ea43 0302 	orr.w	r3, r3, r2
 8002564:	bfac      	ite	ge
 8002566:	f100 4060 	addge.w	r0, r0, #3758096384	@ 0xe0000000
 800256a:	4a08      	ldrlt	r2, [pc, #32]	@ (800258c <HAL_NVIC_SetPriority+0x60>)
 800256c:	ea4f 1303 	mov.w	r3, r3, lsl #4
 8002570:	bfb8      	it	lt
 8002572:	f000 000f 	andlt.w	r0, r0, #15
 8002576:	b2db      	uxtb	r3, r3
 8002578:	bfaa      	itet	ge
 800257a:	f500 4061 	addge.w	r0, r0, #57600	@ 0xe100
 800257e:	5413      	strblt	r3, [r2, r0]
 8002580:	f880 3300 	strbge.w	r3, [r0, #768]	@ 0x300
 8002584:	bd30      	pop	{r4, r5, pc}
 8002586:	bf00      	nop
 8002588:	e000ed00 	.word	0xe000ed00
 800258c:	e000ed14 	.word	0xe000ed14

08002590 <HAL_NVIC_EnableIRQ>:
 8002590:	2800      	cmp	r0, #0
 8002592:	db07      	blt.n	80025a4 <HAL_NVIC_EnableIRQ+0x14>
 8002594:	4a04      	ldr	r2, [pc, #16]	@ (80025a8 <HAL_NVIC_EnableIRQ+0x18>)
 8002596:	0941      	lsrs	r1, r0, #5
 8002598:	2301      	movs	r3, #1
 800259a:	f000 001f 	and.w	r0, r0, #31
 800259e:	4083      	lsls	r3, r0
 80025a0:	f842 3021 	str.w	r3, [r2, r1, lsl #2]
 80025a4:	4770      	bx	lr
 80025a6:	bf00      	nop
 80025a8:	e000e100 	.word	0xe000e100

080025ac <HAL_SYSTICK_Config>:
 80025ac:	3801      	subs	r0, #1
 80025ae:	f1b0 7f80 	cmp.w	r0, #16777216	@ 0x1000000
 80025b2:	d20b      	bcs.n	80025cc <HAL_SYSTICK_Config+0x20>
 80025b4:	f04f 23e0 	mov.w	r3, #3758153728	@ 0xe000e000
 80025b8:	4a05      	ldr	r2, [pc, #20]	@ (80025d0 <HAL_SYSTICK_Config+0x24>)
 80025ba:	6158      	str	r0, [r3, #20]
 80025bc:	21f0      	movs	r1, #240	@ 0xf0
 80025be:	f882 1023 	strb.w	r1, [r2, #35]	@ 0x23
 80025c2:	2000      	movs	r0, #0
 80025c4:	2207      	movs	r2, #7
 80025c6:	6198      	str	r0, [r3, #24]
 80025c8:	611a      	str	r2, [r3, #16]
 80025ca:	4770      	bx	lr
 80025cc:	2001      	movs	r0, #1
 80025ce:	4770      	bx	lr
 80025d0:	e000ed00 	.word	0xe000ed00

080025d4 <HAL_FDCAN_Init>:
 80025d4:	b538      	push	{r3, r4, r5, lr}
 80025d6:	4604      	mov	r4, r0
 80025d8:	2800      	cmp	r0, #0
 80025da:	f000 80ce 	beq.w	800277a <HAL_FDCAN_Init+0x1a6>
 80025de:	f890 305c 	ldrb.w	r3, [r0, #92]	@ 0x5c
 80025e2:	f003 02ff 	and.w	r2, r3, #255	@ 0xff
 80025e6:	b91b      	cbnz	r3, 80025f0 <HAL_FDCAN_Init+0x1c>
 80025e8:	f880 205d 	strb.w	r2, [r0, #93]	@ 0x5d
 80025ec:	f7fe fcee 	bl	8000fcc <HAL_FDCAN_MspInit>
 80025f0:	6822      	ldr	r2, [r4, #0]
 80025f2:	6993      	ldr	r3, [r2, #24]
 80025f4:	f023 0310 	bic.w	r3, r3, #16
 80025f8:	6193      	str	r3, [r2, #24]
 80025fa:	f7fe feff 	bl	80013fc <HAL_GetTick>
 80025fe:	4605      	mov	r5, r0
 8002600:	6823      	ldr	r3, [r4, #0]
 8002602:	699a      	ldr	r2, [r3, #24]
 8002604:	0711      	lsls	r1, r2, #28
 8002606:	f100 80ab 	bmi.w	8002760 <HAL_FDCAN_Init+0x18c>
 800260a:	699a      	ldr	r2, [r3, #24]
 800260c:	f042 0201 	orr.w	r2, r2, #1
 8002610:	619a      	str	r2, [r3, #24]
 8002612:	f7fe fef3 	bl	80013fc <HAL_GetTick>
 8002616:	4605      	mov	r5, r0
 8002618:	6823      	ldr	r3, [r4, #0]
 800261a:	699a      	ldr	r2, [r3, #24]
 800261c:	07d2      	lsls	r2, r2, #31
 800261e:	f140 80ae 	bpl.w	800277e <HAL_FDCAN_Init+0x1aa>
 8002622:	699a      	ldr	r2, [r3, #24]
 8002624:	f042 0202 	orr.w	r2, r2, #2
 8002628:	619a      	str	r2, [r3, #24]
 800262a:	4a63      	ldr	r2, [pc, #396]	@ (80027b8 <HAL_FDCAN_Init+0x1e4>)
 800262c:	4293      	cmp	r3, r2
 800262e:	bf04      	itt	eq
 8002630:	6861      	ldreq	r1, [r4, #4]
 8002632:	f8c2 1100 	streq.w	r1, [r2, #256]	@ 0x100
 8002636:	7c22      	ldrb	r2, [r4, #16]
 8002638:	2a01      	cmp	r2, #1
 800263a:	699a      	ldr	r2, [r3, #24]
 800263c:	bf0c      	ite	eq
 800263e:	f022 0240 	biceq.w	r2, r2, #64	@ 0x40
 8002642:	f042 0240 	orrne.w	r2, r2, #64	@ 0x40
 8002646:	619a      	str	r2, [r3, #24]
 8002648:	7c62      	ldrb	r2, [r4, #17]
 800264a:	2a01      	cmp	r2, #1
 800264c:	699a      	ldr	r2, [r3, #24]
 800264e:	bf0c      	ite	eq
 8002650:	f442 4280 	orreq.w	r2, r2, #16384	@ 0x4000
 8002654:	f422 4280 	bicne.w	r2, r2, #16384	@ 0x4000
 8002658:	619a      	str	r2, [r3, #24]
 800265a:	7ca2      	ldrb	r2, [r4, #18]
 800265c:	2a01      	cmp	r2, #1
 800265e:	699a      	ldr	r2, [r3, #24]
 8002660:	bf0c      	ite	eq
 8002662:	f422 5280 	biceq.w	r2, r2, #4096	@ 0x1000
 8002666:	f442 5280 	orrne.w	r2, r2, #4096	@ 0x1000
 800266a:	619a      	str	r2, [r3, #24]
 800266c:	699a      	ldr	r2, [r3, #24]
 800266e:	68a0      	ldr	r0, [r4, #8]
 8002670:	f422 7240 	bic.w	r2, r2, #768	@ 0x300
 8002674:	4302      	orrs	r2, r0
 8002676:	619a      	str	r2, [r3, #24]
 8002678:	699a      	ldr	r2, [r3, #24]
 800267a:	f022 02a4 	bic.w	r2, r2, #164	@ 0xa4
 800267e:	619a      	str	r2, [r3, #24]
 8002680:	691a      	ldr	r2, [r3, #16]
 8002682:	f022 0210 	bic.w	r2, r2, #16
 8002686:	611a      	str	r2, [r3, #16]
 8002688:	68e2      	ldr	r2, [r4, #12]
 800268a:	2a01      	cmp	r2, #1
 800268c:	d17e      	bne.n	800278c <HAL_FDCAN_Init+0x1b8>
 800268e:	699a      	ldr	r2, [r3, #24]
 8002690:	f042 0204 	orr.w	r2, r2, #4
 8002694:	619a      	str	r2, [r3, #24]
 8002696:	69a2      	ldr	r2, [r4, #24]
 8002698:	1e51      	subs	r1, r2, #1
 800269a:	69e2      	ldr	r2, [r4, #28]
 800269c:	3a01      	subs	r2, #1
 800269e:	0212      	lsls	r2, r2, #8
 80026a0:	ea42 6241 	orr.w	r2, r2, r1, lsl #25
 80026a4:	6a21      	ldr	r1, [r4, #32]
 80026a6:	3901      	subs	r1, #1
 80026a8:	430a      	orrs	r2, r1
 80026aa:	6961      	ldr	r1, [r4, #20]
 80026ac:	3901      	subs	r1, #1
 80026ae:	ea42 4201 	orr.w	r2, r2, r1, lsl #16
 80026b2:	f5b0 7f40 	cmp.w	r0, #768	@ 0x300
 80026b6:	61da      	str	r2, [r3, #28]
 80026b8:	d10e      	bne.n	80026d8 <HAL_FDCAN_Init+0x104>
 80026ba:	6ae2      	ldr	r2, [r4, #44]	@ 0x2c
 80026bc:	1e51      	subs	r1, r2, #1
 80026be:	6b22      	ldr	r2, [r4, #48]	@ 0x30
 80026c0:	3a01      	subs	r2, #1
 80026c2:	0112      	lsls	r2, r2, #4
 80026c4:	ea42 2201 	orr.w	r2, r2, r1, lsl #8
 80026c8:	6aa1      	ldr	r1, [r4, #40]	@ 0x28
 80026ca:	3901      	subs	r1, #1
 80026cc:	430a      	orrs	r2, r1
 80026ce:	6a61      	ldr	r1, [r4, #36]	@ 0x24
 80026d0:	3901      	subs	r1, #1
 80026d2:	ea42 4201 	orr.w	r2, r2, r1, lsl #16
 80026d6:	60da      	str	r2, [r3, #12]
 80026d8:	f8d3 20c0 	ldr.w	r2, [r3, #192]	@ 0xc0
 80026dc:	6be1      	ldr	r1, [r4, #60]	@ 0x3c
 80026de:	430a      	orrs	r2, r1
 80026e0:	f8c3 20c0 	str.w	r2, [r3, #192]	@ 0xc0
 80026e4:	4a35      	ldr	r2, [pc, #212]	@ (80027bc <HAL_FDCAN_Init+0x1e8>)
 80026e6:	4293      	cmp	r3, r2
 80026e8:	d063      	beq.n	80027b2 <HAL_FDCAN_Init+0x1de>
 80026ea:	4935      	ldr	r1, [pc, #212]	@ (80027c0 <HAL_FDCAN_Init+0x1ec>)
 80026ec:	4835      	ldr	r0, [pc, #212]	@ (80027c4 <HAL_FDCAN_Init+0x1f0>)
 80026ee:	f502 5270 	add.w	r2, r2, #15360	@ 0x3c00
 80026f2:	428b      	cmp	r3, r1
 80026f4:	bf18      	it	ne
 80026f6:	4610      	movne	r0, r2
 80026f8:	f8d3 2080 	ldr.w	r2, [r3, #128]	@ 0x80
 80026fc:	6b61      	ldr	r1, [r4, #52]	@ 0x34
 80026fe:	6420      	str	r0, [r4, #64]	@ 0x40
 8002700:	f422 12f8 	bic.w	r2, r2, #2031616	@ 0x1f0000
 8002704:	ea42 4201 	orr.w	r2, r2, r1, lsl #16
 8002708:	f8c3 2080 	str.w	r2, [r3, #128]	@ 0x80
 800270c:	f100 0270 	add.w	r2, r0, #112	@ 0x70
 8002710:	6462      	str	r2, [r4, #68]	@ 0x44
 8002712:	f8d3 2080 	ldr.w	r2, [r3, #128]	@ 0x80
 8002716:	6ba1      	ldr	r1, [r4, #56]	@ 0x38
 8002718:	f022 6270 	bic.w	r2, r2, #251658240	@ 0xf000000
 800271c:	ea42 6201 	orr.w	r2, r2, r1, lsl #24
 8002720:	f8c3 2080 	str.w	r2, [r3, #128]	@ 0x80
 8002724:	f100 03b0 	add.w	r3, r0, #176	@ 0xb0
 8002728:	64a3      	str	r3, [r4, #72]	@ 0x48
 800272a:	f500 73c4 	add.w	r3, r0, #392	@ 0x188
 800272e:	64e3      	str	r3, [r4, #76]	@ 0x4c
 8002730:	f500 7318 	add.w	r3, r0, #608	@ 0x260
 8002734:	6523      	str	r3, [r4, #80]	@ 0x50
 8002736:	f500 731e 	add.w	r3, r0, #632	@ 0x278
 800273a:	6563      	str	r3, [r4, #84]	@ 0x54
 800273c:	f500 7254 	add.w	r2, r0, #848	@ 0x350
 8002740:	1d03      	adds	r3, r0, #4
 8002742:	429a      	cmp	r2, r3
 8002744:	bf34      	ite	cc
 8002746:	2201      	movcc	r2, #1
 8002748:	22d4      	movcs	r2, #212	@ 0xd4
 800274a:	0092      	lsls	r2, r2, #2
 800274c:	2100      	movs	r1, #0
 800274e:	f002 fa06 	bl	8004b5e <memset>
 8002752:	2000      	movs	r0, #0
 8002754:	2301      	movs	r3, #1
 8002756:	6620      	str	r0, [r4, #96]	@ 0x60
 8002758:	65a0      	str	r0, [r4, #88]	@ 0x58
 800275a:	f884 305c 	strb.w	r3, [r4, #92]	@ 0x5c
 800275e:	e00d      	b.n	800277c <HAL_FDCAN_Init+0x1a8>
 8002760:	f7fe fe4c 	bl	80013fc <HAL_GetTick>
 8002764:	1b40      	subs	r0, r0, r5
 8002766:	280a      	cmp	r0, #10
 8002768:	f67f af4a 	bls.w	8002600 <HAL_FDCAN_Init+0x2c>
 800276c:	6e23      	ldr	r3, [r4, #96]	@ 0x60
 800276e:	f043 0301 	orr.w	r3, r3, #1
 8002772:	6623      	str	r3, [r4, #96]	@ 0x60
 8002774:	2303      	movs	r3, #3
 8002776:	f884 305c 	strb.w	r3, [r4, #92]	@ 0x5c
 800277a:	2001      	movs	r0, #1
 800277c:	bd38      	pop	{r3, r4, r5, pc}
 800277e:	f7fe fe3d 	bl	80013fc <HAL_GetTick>
 8002782:	1b40      	subs	r0, r0, r5
 8002784:	280a      	cmp	r0, #10
 8002786:	f67f af47 	bls.w	8002618 <HAL_FDCAN_Init+0x44>
 800278a:	e7ef      	b.n	800276c <HAL_FDCAN_Init+0x198>
 800278c:	2a00      	cmp	r2, #0
 800278e:	d082      	beq.n	8002696 <HAL_FDCAN_Init+0xc2>
 8002790:	2a02      	cmp	r2, #2
 8002792:	d00a      	beq.n	80027aa <HAL_FDCAN_Init+0x1d6>
 8002794:	6999      	ldr	r1, [r3, #24]
 8002796:	f041 0180 	orr.w	r1, r1, #128	@ 0x80
 800279a:	6199      	str	r1, [r3, #24]
 800279c:	6919      	ldr	r1, [r3, #16]
 800279e:	2a03      	cmp	r2, #3
 80027a0:	f041 0110 	orr.w	r1, r1, #16
 80027a4:	6119      	str	r1, [r3, #16]
 80027a6:	f47f af76 	bne.w	8002696 <HAL_FDCAN_Init+0xc2>
 80027aa:	699a      	ldr	r2, [r3, #24]
 80027ac:	f042 0220 	orr.w	r2, r2, #32
 80027b0:	e770      	b.n	8002694 <HAL_FDCAN_Init+0xc0>
 80027b2:	4805      	ldr	r0, [pc, #20]	@ (80027c8 <HAL_FDCAN_Init+0x1f4>)
 80027b4:	e7a0      	b.n	80026f8 <HAL_FDCAN_Init+0x124>
 80027b6:	bf00      	nop
 80027b8:	40006400 	.word	0x40006400
 80027bc:	40006800 	.word	0x40006800
 80027c0:	40006c00 	.word	0x40006c00
 80027c4:	4000aaa0 	.word	0x4000aaa0
 80027c8:	4000a750 	.word	0x4000a750

080027cc <HAL_FDCAN_AddMessageToTxFifoQ>:
 80027cc:	e92d 43f0 	stmdb	sp!, {r4, r5, r6, r7, r8, r9, lr}
 80027d0:	f890 305c 	ldrb.w	r3, [r0, #92]	@ 0x5c
 80027d4:	2b02      	cmp	r3, #2
 80027d6:	4691      	mov	r9, r2
 80027d8:	d156      	bne.n	8002888 <HAL_FDCAN_AddMessageToTxFifoQ+0xbc>
 80027da:	f8d0 c000 	ldr.w	ip, [r0]
 80027de:	f8dc 50c4 	ldr.w	r5, [ip, #196]	@ 0xc4
 80027e2:	f415 1500 	ands.w	r5, r5, #2097152	@ 0x200000
 80027e6:	d005      	beq.n	80027f4 <HAL_FDCAN_AddMessageToTxFifoQ+0x28>
 80027e8:	6e03      	ldr	r3, [r0, #96]	@ 0x60
 80027ea:	f443 7300 	orr.w	r3, r3, #512	@ 0x200
 80027ee:	6603      	str	r3, [r0, #96]	@ 0x60
 80027f0:	2001      	movs	r0, #1
 80027f2:	e030      	b.n	8002856 <HAL_FDCAN_AddMessageToTxFifoQ+0x8a>
 80027f4:	e9d1 4200 	ldrd	r4, r2, [r1]
 80027f8:	f8dc 60c4 	ldr.w	r6, [ip, #196]	@ 0xc4
 80027fc:	690b      	ldr	r3, [r1, #16]
 80027fe:	688f      	ldr	r7, [r1, #8]
 8002800:	f3c6 4601 	ubfx	r6, r6, #16, #2
 8002804:	bb4a      	cbnz	r2, 800285a <HAL_FDCAN_AddMessageToTxFifoQ+0x8e>
 8002806:	433b      	orrs	r3, r7
 8002808:	ea43 4384 	orr.w	r3, r3, r4, lsl #18
 800280c:	e9d1 7406 	ldrd	r7, r4, [r1, #24]
 8002810:	433c      	orrs	r4, r7
 8002812:	694f      	ldr	r7, [r1, #20]
 8002814:	f8d0 8054 	ldr.w	r8, [r0, #84]	@ 0x54
 8002818:	433c      	orrs	r4, r7
 800281a:	6a0f      	ldr	r7, [r1, #32]
 800281c:	ea44 6407 	orr.w	r4, r4, r7, lsl #24
 8002820:	68cf      	ldr	r7, [r1, #12]
 8002822:	ea44 4407 	orr.w	r4, r4, r7, lsl #16
 8002826:	2748      	movs	r7, #72	@ 0x48
 8002828:	4377      	muls	r7, r6
 800282a:	eb07 0e08 	add.w	lr, r7, r8
 800282e:	f847 3008 	str.w	r3, [r7, r8]
 8002832:	f8ce 4004 	str.w	r4, [lr, #4]
 8002836:	4c16      	ldr	r4, [pc, #88]	@ (8002890 <HAL_FDCAN_AddMessageToTxFifoQ+0xc4>)
 8002838:	464a      	mov	r2, r9
 800283a:	f10e 0e08 	add.w	lr, lr, #8
 800283e:	68cb      	ldr	r3, [r1, #12]
 8002840:	5ce3      	ldrb	r3, [r4, r3]
 8002842:	429d      	cmp	r5, r3
 8002844:	f102 0204 	add.w	r2, r2, #4
 8002848:	d30c      	bcc.n	8002864 <HAL_FDCAN_AddMessageToTxFifoQ+0x98>
 800284a:	2301      	movs	r3, #1
 800284c:	40b3      	lsls	r3, r6
 800284e:	f8cc 30cc 	str.w	r3, [ip, #204]	@ 0xcc
 8002852:	6583      	str	r3, [r0, #88]	@ 0x58
 8002854:	2000      	movs	r0, #0
 8002856:	e8bd 83f0 	ldmia.w	sp!, {r4, r5, r6, r7, r8, r9, pc}
 800285a:	4323      	orrs	r3, r4
 800285c:	433b      	orrs	r3, r7
 800285e:	f043 4380 	orr.w	r3, r3, #1073741824	@ 0x40000000
 8002862:	e7d3      	b.n	800280c <HAL_FDCAN_AddMessageToTxFifoQ+0x40>
 8002864:	f812 3c02 	ldrb.w	r3, [r2, #-2]
 8002868:	f812 7c01 	ldrb.w	r7, [r2, #-1]
 800286c:	041b      	lsls	r3, r3, #16
 800286e:	ea43 6307 	orr.w	r3, r3, r7, lsl #24
 8002872:	f812 7c04 	ldrb.w	r7, [r2, #-4]
 8002876:	433b      	orrs	r3, r7
 8002878:	f812 7c03 	ldrb.w	r7, [r2, #-3]
 800287c:	ea43 2307 	orr.w	r3, r3, r7, lsl #8
 8002880:	f84e 3005 	str.w	r3, [lr, r5]
 8002884:	3504      	adds	r5, #4
 8002886:	e7da      	b.n	800283e <HAL_FDCAN_AddMessageToTxFifoQ+0x72>
 8002888:	6e03      	ldr	r3, [r0, #96]	@ 0x60
 800288a:	f043 0308 	orr.w	r3, r3, #8
 800288e:	e7ae      	b.n	80027ee <HAL_FDCAN_AddMessageToTxFifoQ+0x22>
 8002890:	08004bf0 	.word	0x08004bf0

08002894 <HAL_FDCAN_GetRxMessage>:
 8002894:	b5f0      	push	{r4, r5, r6, r7, lr}
 8002896:	f890 405c 	ldrb.w	r4, [r0, #92]	@ 0x5c
 800289a:	2c02      	cmp	r4, #2
 800289c:	d175      	bne.n	800298a <HAL_FDCAN_GetRxMessage+0xf6>
 800289e:	2940      	cmp	r1, #64	@ 0x40
 80028a0:	6804      	ldr	r4, [r0, #0]
 80028a2:	d155      	bne.n	8002950 <HAL_FDCAN_GetRxMessage+0xbc>
 80028a4:	f8d4 5090 	ldr.w	r5, [r4, #144]	@ 0x90
 80028a8:	072e      	lsls	r6, r5, #28
 80028aa:	d105      	bne.n	80028b8 <HAL_FDCAN_GetRxMessage+0x24>
 80028ac:	6e03      	ldr	r3, [r0, #96]	@ 0x60
 80028ae:	f443 7380 	orr.w	r3, r3, #256	@ 0x100
 80028b2:	6603      	str	r3, [r0, #96]	@ 0x60
 80028b4:	2001      	movs	r0, #1
 80028b6:	bdf0      	pop	{r4, r5, r6, r7, pc}
 80028b8:	f8d4 6090 	ldr.w	r6, [r4, #144]	@ 0x90
 80028bc:	f016 7680 	ands.w	r6, r6, #16777216	@ 0x1000000
 80028c0:	bf18      	it	ne
 80028c2:	f8d4 6080 	ldrne.w	r6, [r4, #128]	@ 0x80
 80028c6:	f8d4 5090 	ldr.w	r5, [r4, #144]	@ 0x90
 80028ca:	6c84      	ldr	r4, [r0, #72]	@ 0x48
 80028cc:	bf18      	it	ne
 80028ce:	f3c6 2640 	ubfxne	r6, r6, #9, #1
 80028d2:	f3c5 2501 	ubfx	r5, r5, #8, #2
 80028d6:	4435      	add	r5, r6
 80028d8:	2648      	movs	r6, #72	@ 0x48
 80028da:	fb06 4405 	mla	r4, r6, r5, r4
 80028de:	6827      	ldr	r7, [r4, #0]
 80028e0:	f007 4780 	and.w	r7, r7, #1073741824	@ 0x40000000
 80028e4:	6057      	str	r7, [r2, #4]
 80028e6:	6826      	ldr	r6, [r4, #0]
 80028e8:	2f00      	cmp	r7, #0
 80028ea:	d146      	bne.n	800297a <HAL_FDCAN_GetRxMessage+0xe6>
 80028ec:	f3c6 468a 	ubfx	r6, r6, #18, #11
 80028f0:	6016      	str	r6, [r2, #0]
 80028f2:	6826      	ldr	r6, [r4, #0]
 80028f4:	f8df c09c 	ldr.w	ip, [pc, #156]	@ 8002994 <HAL_FDCAN_GetRxMessage+0x100>
 80028f8:	f006 5600 	and.w	r6, r6, #536870912	@ 0x20000000
 80028fc:	6096      	str	r6, [r2, #8]
 80028fe:	6826      	ldr	r6, [r4, #0]
 8002900:	f006 4600 	and.w	r6, r6, #2147483648	@ 0x80000000
 8002904:	6116      	str	r6, [r2, #16]
 8002906:	88a6      	ldrh	r6, [r4, #4]
 8002908:	61d6      	str	r6, [r2, #28]
 800290a:	88e6      	ldrh	r6, [r4, #6]
 800290c:	f006 060f 	and.w	r6, r6, #15
 8002910:	60d6      	str	r6, [r2, #12]
 8002912:	6866      	ldr	r6, [r4, #4]
 8002914:	f406 1680 	and.w	r6, r6, #1048576	@ 0x100000
 8002918:	6156      	str	r6, [r2, #20]
 800291a:	6866      	ldr	r6, [r4, #4]
 800291c:	f406 1600 	and.w	r6, r6, #2097152	@ 0x200000
 8002920:	6196      	str	r6, [r2, #24]
 8002922:	79e6      	ldrb	r6, [r4, #7]
 8002924:	f006 067f 	and.w	r6, r6, #127	@ 0x7f
 8002928:	6216      	str	r6, [r2, #32]
 800292a:	6866      	ldr	r6, [r4, #4]
 800292c:	0ff6      	lsrs	r6, r6, #31
 800292e:	6256      	str	r6, [r2, #36]	@ 0x24
 8002930:	3407      	adds	r4, #7
 8002932:	2600      	movs	r6, #0
 8002934:	68d7      	ldr	r7, [r2, #12]
 8002936:	f81c 7007 	ldrb.w	r7, [ip, r7]
 800293a:	42b7      	cmp	r7, r6
 800293c:	d820      	bhi.n	8002980 <HAL_FDCAN_GetRxMessage+0xec>
 800293e:	6803      	ldr	r3, [r0, #0]
 8002940:	2940      	cmp	r1, #64	@ 0x40
 8002942:	bf0c      	ite	eq
 8002944:	f8c3 5094 	streq.w	r5, [r3, #148]	@ 0x94
 8002948:	f8c3 509c 	strne.w	r5, [r3, #156]	@ 0x9c
 800294c:	2000      	movs	r0, #0
 800294e:	e7b2      	b.n	80028b6 <HAL_FDCAN_GetRxMessage+0x22>
 8002950:	f8d4 5098 	ldr.w	r5, [r4, #152]	@ 0x98
 8002954:	072d      	lsls	r5, r5, #28
 8002956:	d0a9      	beq.n	80028ac <HAL_FDCAN_GetRxMessage+0x18>
 8002958:	f8d4 6098 	ldr.w	r6, [r4, #152]	@ 0x98
 800295c:	f016 7680 	ands.w	r6, r6, #16777216	@ 0x1000000
 8002960:	bf18      	it	ne
 8002962:	f8d4 6080 	ldrne.w	r6, [r4, #128]	@ 0x80
 8002966:	f8d4 5098 	ldr.w	r5, [r4, #152]	@ 0x98
 800296a:	6cc4      	ldr	r4, [r0, #76]	@ 0x4c
 800296c:	bf18      	it	ne
 800296e:	f3c6 2600 	ubfxne	r6, r6, #8, #1
 8002972:	f3c5 2501 	ubfx	r5, r5, #8, #2
 8002976:	4435      	add	r5, r6
 8002978:	e7ae      	b.n	80028d8 <HAL_FDCAN_GetRxMessage+0x44>
 800297a:	f026 4660 	bic.w	r6, r6, #3758096384	@ 0xe0000000
 800297e:	e7b7      	b.n	80028f0 <HAL_FDCAN_GetRxMessage+0x5c>
 8002980:	f814 7f01 	ldrb.w	r7, [r4, #1]!
 8002984:	559f      	strb	r7, [r3, r6]
 8002986:	3601      	adds	r6, #1
 8002988:	e7d4      	b.n	8002934 <HAL_FDCAN_GetRxMessage+0xa0>
 800298a:	6e03      	ldr	r3, [r0, #96]	@ 0x60
 800298c:	f043 0308 	orr.w	r3, r3, #8
 8002990:	e78f      	b.n	80028b2 <HAL_FDCAN_GetRxMessage+0x1e>
 8002992:	bf00      	nop
 8002994:	08004bf0 	.word	0x08004bf0

08002998 <HAL_FDCAN_TxEventFifoCallback>:
 8002998:	4770      	bx	lr

0800299a <HAL_FDCAN_RxFifo1Callback>:
 800299a:	4770      	bx	lr

0800299c <HAL_FDCAN_TxFifoEmptyCallback>:
 800299c:	4770      	bx	lr

0800299e <HAL_FDCAN_TxBufferCompleteCallback>:
 800299e:	4770      	bx	lr

080029a0 <HAL_FDCAN_TxBufferAbortCallback>:
 80029a0:	4770      	bx	lr

080029a2 <HAL_FDCAN_TimestampWraparoundCallback>:
 80029a2:	4770      	bx	lr

080029a4 <HAL_FDCAN_TimeoutOccurredCallback>:
 80029a4:	4770      	bx	lr

080029a6 <HAL_FDCAN_HighPriorityMessageCallback>:
 80029a6:	4770      	bx	lr

080029a8 <HAL_FDCAN_ErrorCallback>:
 80029a8:	4770      	bx	lr

080029aa <HAL_FDCAN_ErrorStatusCallback>:
 80029aa:	4770      	bx	lr

080029ac <HAL_FDCAN_IRQHandler>:
 80029ac:	e92d 4ff8 	stmdb	sp!, {r3, r4, r5, r6, r7, r8, r9, sl, fp, lr}
 80029b0:	6803      	ldr	r3, [r0, #0]
 80029b2:	6d1a      	ldr	r2, [r3, #80]	@ 0x50
 80029b4:	6d59      	ldr	r1, [r3, #84]	@ 0x54
 80029b6:	ea02 0b01 	and.w	fp, r2, r1
 80029ba:	6d1a      	ldr	r2, [r3, #80]	@ 0x50
 80029bc:	6d59      	ldr	r1, [r3, #84]	@ 0x54
 80029be:	ea02 0a01 	and.w	sl, r2, r1
 80029c2:	6d1a      	ldr	r2, [r3, #80]	@ 0x50
 80029c4:	6d59      	ldr	r1, [r3, #84]	@ 0x54
 80029c6:	6d1d      	ldr	r5, [r3, #80]	@ 0x50
 80029c8:	ea02 0901 	and.w	r9, r2, r1
 80029cc:	6d5a      	ldr	r2, [r3, #84]	@ 0x54
 80029ce:	6d1e      	ldr	r6, [r3, #80]	@ 0x50
 80029d0:	4015      	ands	r5, r2
 80029d2:	6d5a      	ldr	r2, [r3, #84]	@ 0x54
 80029d4:	6d5f      	ldr	r7, [r3, #84]	@ 0x54
 80029d6:	f8d3 8050 	ldr.w	r8, [r3, #80]	@ 0x50
 80029da:	4016      	ands	r6, r2
 80029dc:	f018 0f40 	tst.w	r8, #64	@ 0x40
 80029e0:	4604      	mov	r4, r0
 80029e2:	f40b 5be0 	and.w	fp, fp, #7168	@ 0x1c00
 80029e6:	f00a 0a07 	and.w	sl, sl, #7
 80029ea:	f009 0938 	and.w	r9, r9, #56	@ 0x38
 80029ee:	f405 0571 	and.w	r5, r5, #15794176	@ 0xf10000
 80029f2:	f406 2660 	and.w	r6, r6, #917504	@ 0xe0000
 80029f6:	d005      	beq.n	8002a04 <HAL_FDCAN_IRQHandler+0x58>
 80029f8:	0679      	lsls	r1, r7, #25
 80029fa:	d503      	bpl.n	8002a04 <HAL_FDCAN_IRQHandler+0x58>
 80029fc:	2240      	movs	r2, #64	@ 0x40
 80029fe:	651a      	str	r2, [r3, #80]	@ 0x50
 8002a00:	f7ff ffd1 	bl	80029a6 <HAL_FDCAN_HighPriorityMessageCallback>
 8002a04:	f418 7f80 	tst.w	r8, #256	@ 0x100
 8002a08:	d00d      	beq.n	8002a26 <HAL_FDCAN_IRQHandler+0x7a>
 8002a0a:	05fa      	lsls	r2, r7, #23
 8002a0c:	d50b      	bpl.n	8002a26 <HAL_FDCAN_IRQHandler+0x7a>
 8002a0e:	6823      	ldr	r3, [r4, #0]
 8002a10:	f8d3 10d8 	ldr.w	r1, [r3, #216]	@ 0xd8
 8002a14:	f8d3 20e0 	ldr.w	r2, [r3, #224]	@ 0xe0
 8002a18:	f44f 7080 	mov.w	r0, #256	@ 0x100
 8002a1c:	6518      	str	r0, [r3, #80]	@ 0x50
 8002a1e:	4011      	ands	r1, r2
 8002a20:	4620      	mov	r0, r4
 8002a22:	f7ff ffbd 	bl	80029a0 <HAL_FDCAN_TxBufferAbortCallback>
 8002a26:	f1bb 0f00 	cmp.w	fp, #0
 8002a2a:	d006      	beq.n	8002a3a <HAL_FDCAN_IRQHandler+0x8e>
 8002a2c:	6823      	ldr	r3, [r4, #0]
 8002a2e:	4659      	mov	r1, fp
 8002a30:	f8c3 b050 	str.w	fp, [r3, #80]	@ 0x50
 8002a34:	4620      	mov	r0, r4
 8002a36:	f7ff ffaf 	bl	8002998 <HAL_FDCAN_TxEventFifoCallback>
 8002a3a:	f1ba 0f00 	cmp.w	sl, #0
 8002a3e:	d006      	beq.n	8002a4e <HAL_FDCAN_IRQHandler+0xa2>
 8002a40:	6823      	ldr	r3, [r4, #0]
 8002a42:	4651      	mov	r1, sl
 8002a44:	f8c3 a050 	str.w	sl, [r3, #80]	@ 0x50
 8002a48:	4620      	mov	r0, r4
 8002a4a:	f7fd fdd3 	bl	80005f4 <HAL_FDCAN_RxFifo0Callback>
 8002a4e:	f1b9 0f00 	cmp.w	r9, #0
 8002a52:	d006      	beq.n	8002a62 <HAL_FDCAN_IRQHandler+0xb6>
 8002a54:	6823      	ldr	r3, [r4, #0]
 8002a56:	4649      	mov	r1, r9
 8002a58:	f8c3 9050 	str.w	r9, [r3, #80]	@ 0x50
 8002a5c:	4620      	mov	r0, r4
 8002a5e:	f7ff ff9c 	bl	800299a <HAL_FDCAN_RxFifo1Callback>
 8002a62:	f418 7f00 	tst.w	r8, #512	@ 0x200
 8002a66:	d008      	beq.n	8002a7a <HAL_FDCAN_IRQHandler+0xce>
 8002a68:	05bb      	lsls	r3, r7, #22
 8002a6a:	d506      	bpl.n	8002a7a <HAL_FDCAN_IRQHandler+0xce>
 8002a6c:	6823      	ldr	r3, [r4, #0]
 8002a6e:	f44f 7200 	mov.w	r2, #512	@ 0x200
 8002a72:	651a      	str	r2, [r3, #80]	@ 0x50
 8002a74:	4620      	mov	r0, r4
 8002a76:	f7ff ff91 	bl	800299c <HAL_FDCAN_TxFifoEmptyCallback>
 8002a7a:	f018 0f80 	tst.w	r8, #128	@ 0x80
 8002a7e:	d00c      	beq.n	8002a9a <HAL_FDCAN_IRQHandler+0xee>
 8002a80:	0638      	lsls	r0, r7, #24
 8002a82:	d50a      	bpl.n	8002a9a <HAL_FDCAN_IRQHandler+0xee>
 8002a84:	6823      	ldr	r3, [r4, #0]
 8002a86:	f8d3 10d4 	ldr.w	r1, [r3, #212]	@ 0xd4
 8002a8a:	f8d3 20dc 	ldr.w	r2, [r3, #220]	@ 0xdc
 8002a8e:	2080      	movs	r0, #128	@ 0x80
 8002a90:	6518      	str	r0, [r3, #80]	@ 0x50
 8002a92:	4011      	ands	r1, r2
 8002a94:	4620      	mov	r0, r4
 8002a96:	f7ff ff82 	bl	800299e <HAL_FDCAN_TxBufferCompleteCallback>
 8002a9a:	f418 5f00 	tst.w	r8, #8192	@ 0x2000
 8002a9e:	d008      	beq.n	8002ab2 <HAL_FDCAN_IRQHandler+0x106>
 8002aa0:	04b9      	lsls	r1, r7, #18
 8002aa2:	d506      	bpl.n	8002ab2 <HAL_FDCAN_IRQHandler+0x106>
 8002aa4:	6823      	ldr	r3, [r4, #0]
 8002aa6:	f44f 5200 	mov.w	r2, #8192	@ 0x2000
 8002aaa:	651a      	str	r2, [r3, #80]	@ 0x50
 8002aac:	4620      	mov	r0, r4
 8002aae:	f7ff ff78 	bl	80029a2 <HAL_FDCAN_TimestampWraparoundCallback>
 8002ab2:	f418 4f00 	tst.w	r8, #32768	@ 0x8000
 8002ab6:	d008      	beq.n	8002aca <HAL_FDCAN_IRQHandler+0x11e>
 8002ab8:	043a      	lsls	r2, r7, #16
 8002aba:	d506      	bpl.n	8002aca <HAL_FDCAN_IRQHandler+0x11e>
 8002abc:	6823      	ldr	r3, [r4, #0]
 8002abe:	f44f 4200 	mov.w	r2, #32768	@ 0x8000
 8002ac2:	651a      	str	r2, [r3, #80]	@ 0x50
 8002ac4:	4620      	mov	r0, r4
 8002ac6:	f7ff ff6d 	bl	80029a4 <HAL_FDCAN_TimeoutOccurredCallback>
 8002aca:	f418 4f80 	tst.w	r8, #16384	@ 0x4000
 8002ace:	d009      	beq.n	8002ae4 <HAL_FDCAN_IRQHandler+0x138>
 8002ad0:	047b      	lsls	r3, r7, #17
 8002ad2:	d507      	bpl.n	8002ae4 <HAL_FDCAN_IRQHandler+0x138>
 8002ad4:	6823      	ldr	r3, [r4, #0]
 8002ad6:	f44f 4280 	mov.w	r2, #16384	@ 0x4000
 8002ada:	651a      	str	r2, [r3, #80]	@ 0x50
 8002adc:	6e23      	ldr	r3, [r4, #96]	@ 0x60
 8002ade:	f043 0380 	orr.w	r3, r3, #128	@ 0x80
 8002ae2:	6623      	str	r3, [r4, #96]	@ 0x60
 8002ae4:	b12e      	cbz	r6, 8002af2 <HAL_FDCAN_IRQHandler+0x146>
 8002ae6:	6823      	ldr	r3, [r4, #0]
 8002ae8:	4631      	mov	r1, r6
 8002aea:	651e      	str	r6, [r3, #80]	@ 0x50
 8002aec:	4620      	mov	r0, r4
 8002aee:	f7ff ff5c 	bl	80029aa <HAL_FDCAN_ErrorStatusCallback>
 8002af2:	b125      	cbz	r5, 8002afe <HAL_FDCAN_IRQHandler+0x152>
 8002af4:	6823      	ldr	r3, [r4, #0]
 8002af6:	651d      	str	r5, [r3, #80]	@ 0x50
 8002af8:	6e23      	ldr	r3, [r4, #96]	@ 0x60
 8002afa:	432b      	orrs	r3, r5
 8002afc:	6623      	str	r3, [r4, #96]	@ 0x60
 8002afe:	6e23      	ldr	r3, [r4, #96]	@ 0x60
 8002b00:	b113      	cbz	r3, 8002b08 <HAL_FDCAN_IRQHandler+0x15c>
 8002b02:	4620      	mov	r0, r4
 8002b04:	f7ff ff50 	bl	80029a8 <HAL_FDCAN_ErrorCallback>
 8002b08:	e8bd 8ff8 	ldmia.w	sp!, {r3, r4, r5, r6, r7, r8, r9, sl, fp, pc}

08002b0c <HAL_GPIO_Init>:
 8002b0c:	e92d 4ff7 	stmdb	sp!, {r0, r1, r2, r4, r5, r6, r7, r8, r9, sl, fp, lr}
 8002b10:	f8df 9188 	ldr.w	r9, [pc, #392]	@ 8002c9c <HAL_GPIO_Init+0x190>
 8002b14:	4c5f      	ldr	r4, [pc, #380]	@ (8002c94 <HAL_GPIO_Init+0x188>)
 8002b16:	2300      	movs	r3, #0
 8002b18:	680a      	ldr	r2, [r1, #0]
 8002b1a:	fa32 f503 	lsrs.w	r5, r2, r3
 8002b1e:	d102      	bne.n	8002b26 <HAL_GPIO_Init+0x1a>
 8002b20:	b003      	add	sp, #12
 8002b22:	e8bd 8ff0 	ldmia.w	sp!, {r4, r5, r6, r7, r8, r9, sl, fp, pc}
 8002b26:	2501      	movs	r5, #1
 8002b28:	fa05 f803 	lsl.w	r8, r5, r3
 8002b2c:	ea18 0202 	ands.w	r2, r8, r2
 8002b30:	f000 80a4 	beq.w	8002c7c <HAL_GPIO_Init+0x170>
 8002b34:	684e      	ldr	r6, [r1, #4]
 8002b36:	2703      	movs	r7, #3
 8002b38:	f006 0503 	and.w	r5, r6, #3
 8002b3c:	ea4f 0e43 	mov.w	lr, r3, lsl #1
 8002b40:	fa07 fc0e 	lsl.w	ip, r7, lr
 8002b44:	1e6f      	subs	r7, r5, #1
 8002b46:	2f01      	cmp	r7, #1
 8002b48:	ea6f 0c0c 	mvn.w	ip, ip
 8002b4c:	d834      	bhi.n	8002bb8 <HAL_GPIO_Init+0xac>
 8002b4e:	6887      	ldr	r7, [r0, #8]
 8002b50:	ea07 0a0c 	and.w	sl, r7, ip
 8002b54:	68cf      	ldr	r7, [r1, #12]
 8002b56:	fa07 f70e 	lsl.w	r7, r7, lr
 8002b5a:	ea47 070a 	orr.w	r7, r7, sl
 8002b5e:	6087      	str	r7, [r0, #8]
 8002b60:	6847      	ldr	r7, [r0, #4]
 8002b62:	ea27 0808 	bic.w	r8, r7, r8
 8002b66:	f3c6 1700 	ubfx	r7, r6, #4, #1
 8002b6a:	409f      	lsls	r7, r3
 8002b6c:	ea47 0708 	orr.w	r7, r7, r8
 8002b70:	6047      	str	r7, [r0, #4]
 8002b72:	68c7      	ldr	r7, [r0, #12]
 8002b74:	ea07 080c 	and.w	r8, r7, ip
 8002b78:	688f      	ldr	r7, [r1, #8]
 8002b7a:	fa07 f70e 	lsl.w	r7, r7, lr
 8002b7e:	ea47 0708 	orr.w	r7, r7, r8
 8002b82:	2d02      	cmp	r5, #2
 8002b84:	60c7      	str	r7, [r0, #12]
 8002b86:	d119      	bne.n	8002bbc <HAL_GPIO_Init+0xb0>
 8002b88:	ea4f 08d3 	mov.w	r8, r3, lsr #3
 8002b8c:	eb00 0888 	add.w	r8, r0, r8, lsl #2
 8002b90:	f003 0a07 	and.w	sl, r3, #7
 8002b94:	f8d8 7020 	ldr.w	r7, [r8, #32]
 8002b98:	ea4f 0a8a 	mov.w	sl, sl, lsl #2
 8002b9c:	f04f 0b0f 	mov.w	fp, #15
 8002ba0:	fa0b fb0a 	lsl.w	fp, fp, sl
 8002ba4:	ea27 0b0b 	bic.w	fp, r7, fp
 8002ba8:	690f      	ldr	r7, [r1, #16]
 8002baa:	fa07 f70a 	lsl.w	r7, r7, sl
 8002bae:	ea47 070b 	orr.w	r7, r7, fp
 8002bb2:	f8c8 7020 	str.w	r7, [r8, #32]
 8002bb6:	e001      	b.n	8002bbc <HAL_GPIO_Init+0xb0>
 8002bb8:	2d03      	cmp	r5, #3
 8002bba:	d1da      	bne.n	8002b72 <HAL_GPIO_Init+0x66>
 8002bbc:	6807      	ldr	r7, [r0, #0]
 8002bbe:	fa05 f50e 	lsl.w	r5, r5, lr
 8002bc2:	ea07 070c 	and.w	r7, r7, ip
 8002bc6:	433d      	orrs	r5, r7
 8002bc8:	f416 3f40 	tst.w	r6, #196608	@ 0x30000
 8002bcc:	6005      	str	r5, [r0, #0]
 8002bce:	d055      	beq.n	8002c7c <HAL_GPIO_Init+0x170>
 8002bd0:	f8d9 5060 	ldr.w	r5, [r9, #96]	@ 0x60
 8002bd4:	f045 0501 	orr.w	r5, r5, #1
 8002bd8:	f8c9 5060 	str.w	r5, [r9, #96]	@ 0x60
 8002bdc:	f8d9 5060 	ldr.w	r5, [r9, #96]	@ 0x60
 8002be0:	f023 0703 	bic.w	r7, r3, #3
 8002be4:	f107 4780 	add.w	r7, r7, #1073741824	@ 0x40000000
 8002be8:	f005 0501 	and.w	r5, r5, #1
 8002bec:	f507 3780 	add.w	r7, r7, #65536	@ 0x10000
 8002bf0:	9501      	str	r5, [sp, #4]
 8002bf2:	f003 0c03 	and.w	ip, r3, #3
 8002bf6:	9d01      	ldr	r5, [sp, #4]
 8002bf8:	68bd      	ldr	r5, [r7, #8]
 8002bfa:	ea4f 0c8c 	mov.w	ip, ip, lsl #2
 8002bfe:	f04f 0e0f 	mov.w	lr, #15
 8002c02:	fa0e fe0c 	lsl.w	lr, lr, ip
 8002c06:	f1b0 4f90 	cmp.w	r0, #1207959552	@ 0x48000000
 8002c0a:	ea25 0e0e 	bic.w	lr, r5, lr
 8002c0e:	d037      	beq.n	8002c80 <HAL_GPIO_Init+0x174>
 8002c10:	4d21      	ldr	r5, [pc, #132]	@ (8002c98 <HAL_GPIO_Init+0x18c>)
 8002c12:	42a8      	cmp	r0, r5
 8002c14:	d036      	beq.n	8002c84 <HAL_GPIO_Init+0x178>
 8002c16:	f505 6580 	add.w	r5, r5, #1024	@ 0x400
 8002c1a:	42a8      	cmp	r0, r5
 8002c1c:	d034      	beq.n	8002c88 <HAL_GPIO_Init+0x17c>
 8002c1e:	f505 6580 	add.w	r5, r5, #1024	@ 0x400
 8002c22:	42a8      	cmp	r0, r5
 8002c24:	d032      	beq.n	8002c8c <HAL_GPIO_Init+0x180>
 8002c26:	f505 6580 	add.w	r5, r5, #1024	@ 0x400
 8002c2a:	42a8      	cmp	r0, r5
 8002c2c:	d030      	beq.n	8002c90 <HAL_GPIO_Init+0x184>
 8002c2e:	f505 6580 	add.w	r5, r5, #1024	@ 0x400
 8002c32:	42a8      	cmp	r0, r5
 8002c34:	bf14      	ite	ne
 8002c36:	2506      	movne	r5, #6
 8002c38:	2505      	moveq	r5, #5
 8002c3a:	fa05 f50c 	lsl.w	r5, r5, ip
 8002c3e:	ea45 050e 	orr.w	r5, r5, lr
 8002c42:	60bd      	str	r5, [r7, #8]
 8002c44:	68a5      	ldr	r5, [r4, #8]
 8002c46:	43d7      	mvns	r7, r2
 8002c48:	f416 1f80 	tst.w	r6, #1048576	@ 0x100000
 8002c4c:	bf0c      	ite	eq
 8002c4e:	403d      	andeq	r5, r7
 8002c50:	4315      	orrne	r5, r2
 8002c52:	60a5      	str	r5, [r4, #8]
 8002c54:	68e5      	ldr	r5, [r4, #12]
 8002c56:	f416 1f00 	tst.w	r6, #2097152	@ 0x200000
 8002c5a:	bf0c      	ite	eq
 8002c5c:	403d      	andeq	r5, r7
 8002c5e:	4315      	orrne	r5, r2
 8002c60:	60e5      	str	r5, [r4, #12]
 8002c62:	6865      	ldr	r5, [r4, #4]
 8002c64:	f416 3f00 	tst.w	r6, #131072	@ 0x20000
 8002c68:	bf0c      	ite	eq
 8002c6a:	403d      	andeq	r5, r7
 8002c6c:	4315      	orrne	r5, r2
 8002c6e:	6065      	str	r5, [r4, #4]
 8002c70:	6825      	ldr	r5, [r4, #0]
 8002c72:	03f6      	lsls	r6, r6, #15
 8002c74:	bf54      	ite	pl
 8002c76:	403d      	andpl	r5, r7
 8002c78:	4315      	orrmi	r5, r2
 8002c7a:	6025      	str	r5, [r4, #0]
 8002c7c:	3301      	adds	r3, #1
 8002c7e:	e74b      	b.n	8002b18 <HAL_GPIO_Init+0xc>
 8002c80:	2500      	movs	r5, #0
 8002c82:	e7da      	b.n	8002c3a <HAL_GPIO_Init+0x12e>
 8002c84:	2501      	movs	r5, #1
 8002c86:	e7d8      	b.n	8002c3a <HAL_GPIO_Init+0x12e>
 8002c88:	2502      	movs	r5, #2
 8002c8a:	e7d6      	b.n	8002c3a <HAL_GPIO_Init+0x12e>
 8002c8c:	2503      	movs	r5, #3
 8002c8e:	e7d4      	b.n	8002c3a <HAL_GPIO_Init+0x12e>
 8002c90:	2504      	movs	r5, #4
 8002c92:	e7d2      	b.n	8002c3a <HAL_GPIO_Init+0x12e>
 8002c94:	40010400 	.word	0x40010400
 8002c98:	48000400 	.word	0x48000400
 8002c9c:	40021000 	.word	0x40021000

08002ca0 <HAL_GPIO_ReadPin>:
 8002ca0:	6903      	ldr	r3, [r0, #16]
 8002ca2:	4219      	tst	r1, r3
 8002ca4:	bf14      	ite	ne
 8002ca6:	2001      	movne	r0, #1
 8002ca8:	2000      	moveq	r0, #0
 8002caa:	4770      	bx	lr

08002cac <HAL_GPIO_WritePin>:
 8002cac:	b10a      	cbz	r2, 8002cb2 <HAL_GPIO_WritePin+0x6>
 8002cae:	6181      	str	r1, [r0, #24]
 8002cb0:	4770      	bx	lr
 8002cb2:	6281      	str	r1, [r0, #40]	@ 0x28
 8002cb4:	4770      	bx	lr

08002cb6 <HAL_GPIO_TogglePin>:
 8002cb6:	6943      	ldr	r3, [r0, #20]
 8002cb8:	ea01 0203 	and.w	r2, r1, r3
 8002cbc:	ea21 0103 	bic.w	r1, r1, r3
 8002cc0:	ea41 4102 	orr.w	r1, r1, r2, lsl #16
 8002cc4:	6181      	str	r1, [r0, #24]
 8002cc6:	4770      	bx	lr

08002cc8 <HAL_PWREx_ControlVoltageScaling>:
 8002cc8:	4b28      	ldr	r3, [pc, #160]	@ (8002d6c <HAL_PWREx_ControlVoltageScaling+0xa4>)
 8002cca:	681a      	ldr	r2, [r3, #0]
 8002ccc:	bb18      	cbnz	r0, 8002d16 <HAL_PWREx_ControlVoltageScaling+0x4e>
 8002cce:	f402 62c0 	and.w	r2, r2, #1536	@ 0x600
 8002cd2:	f5b2 6f80 	cmp.w	r2, #1024	@ 0x400
 8002cd6:	f8d3 2080 	ldr.w	r2, [r3, #128]	@ 0x80
 8002cda:	f422 7280 	bic.w	r2, r2, #256	@ 0x100
 8002cde:	f8c3 2080 	str.w	r2, [r3, #128]	@ 0x80
 8002ce2:	d140      	bne.n	8002d66 <HAL_PWREx_ControlVoltageScaling+0x9e>
 8002ce4:	681a      	ldr	r2, [r3, #0]
 8002ce6:	f422 62c0 	bic.w	r2, r2, #1536	@ 0x600
 8002cea:	f442 7200 	orr.w	r2, r2, #512	@ 0x200
 8002cee:	601a      	str	r2, [r3, #0]
 8002cf0:	4a1f      	ldr	r2, [pc, #124]	@ (8002d70 <HAL_PWREx_ControlVoltageScaling+0xa8>)
 8002cf2:	6812      	ldr	r2, [r2, #0]
 8002cf4:	2132      	movs	r1, #50	@ 0x32
 8002cf6:	434a      	muls	r2, r1
 8002cf8:	491e      	ldr	r1, [pc, #120]	@ (8002d74 <HAL_PWREx_ControlVoltageScaling+0xac>)
 8002cfa:	fbb2 f2f1 	udiv	r2, r2, r1
 8002cfe:	3201      	adds	r2, #1
 8002d00:	6959      	ldr	r1, [r3, #20]
 8002d02:	0549      	lsls	r1, r1, #21
 8002d04:	d500      	bpl.n	8002d08 <HAL_PWREx_ControlVoltageScaling+0x40>
 8002d06:	b922      	cbnz	r2, 8002d12 <HAL_PWREx_ControlVoltageScaling+0x4a>
 8002d08:	695b      	ldr	r3, [r3, #20]
 8002d0a:	0558      	lsls	r0, r3, #21
 8002d0c:	d52b      	bpl.n	8002d66 <HAL_PWREx_ControlVoltageScaling+0x9e>
 8002d0e:	2003      	movs	r0, #3
 8002d10:	4770      	bx	lr
 8002d12:	3a01      	subs	r2, #1
 8002d14:	e7f4      	b.n	8002d00 <HAL_PWREx_ControlVoltageScaling+0x38>
 8002d16:	f5b0 7f00 	cmp.w	r0, #512	@ 0x200
 8002d1a:	d11f      	bne.n	8002d5c <HAL_PWREx_ControlVoltageScaling+0x94>
 8002d1c:	f402 62c0 	and.w	r2, r2, #1536	@ 0x600
 8002d20:	f5b2 6f80 	cmp.w	r2, #1024	@ 0x400
 8002d24:	f8d3 2080 	ldr.w	r2, [r3, #128]	@ 0x80
 8002d28:	f442 7280 	orr.w	r2, r2, #256	@ 0x100
 8002d2c:	f8c3 2080 	str.w	r2, [r3, #128]	@ 0x80
 8002d30:	d119      	bne.n	8002d66 <HAL_PWREx_ControlVoltageScaling+0x9e>
 8002d32:	681a      	ldr	r2, [r3, #0]
 8002d34:	f422 62c0 	bic.w	r2, r2, #1536	@ 0x600
 8002d38:	f442 7200 	orr.w	r2, r2, #512	@ 0x200
 8002d3c:	601a      	str	r2, [r3, #0]
 8002d3e:	4a0c      	ldr	r2, [pc, #48]	@ (8002d70 <HAL_PWREx_ControlVoltageScaling+0xa8>)
 8002d40:	6812      	ldr	r2, [r2, #0]
 8002d42:	2132      	movs	r1, #50	@ 0x32
 8002d44:	434a      	muls	r2, r1
 8002d46:	490b      	ldr	r1, [pc, #44]	@ (8002d74 <HAL_PWREx_ControlVoltageScaling+0xac>)
 8002d48:	fbb2 f2f1 	udiv	r2, r2, r1
 8002d4c:	3201      	adds	r2, #1
 8002d4e:	6959      	ldr	r1, [r3, #20]
 8002d50:	0549      	lsls	r1, r1, #21
 8002d52:	d5d9      	bpl.n	8002d08 <HAL_PWREx_ControlVoltageScaling+0x40>
 8002d54:	2a00      	cmp	r2, #0
 8002d56:	d0d7      	beq.n	8002d08 <HAL_PWREx_ControlVoltageScaling+0x40>
 8002d58:	3a01      	subs	r2, #1
 8002d5a:	e7f8      	b.n	8002d4e <HAL_PWREx_ControlVoltageScaling+0x86>
 8002d5c:	f422 62c0 	bic.w	r2, r2, #1536	@ 0x600
 8002d60:	f442 6280 	orr.w	r2, r2, #1024	@ 0x400
 8002d64:	601a      	str	r2, [r3, #0]
 8002d66:	2000      	movs	r0, #0
 8002d68:	4770      	bx	lr
 8002d6a:	bf00      	nop
 8002d6c:	40007000 	.word	0x40007000
 8002d70:	20000010 	.word	0x20000010
 8002d74:	000f4240 	.word	0x000f4240

08002d78 <HAL_PWREx_DisableUCPDDeadBattery>:
 8002d78:	4a02      	ldr	r2, [pc, #8]	@ (8002d84 <HAL_PWREx_DisableUCPDDeadBattery+0xc>)
 8002d7a:	6893      	ldr	r3, [r2, #8]
 8002d7c:	f443 4380 	orr.w	r3, r3, #16384	@ 0x4000
 8002d80:	6093      	str	r3, [r2, #8]
 8002d82:	4770      	bx	lr
 8002d84:	40007000 	.word	0x40007000

08002d88 <HAL_RCC_OscConfig>:
 8002d88:	e92d 41f3 	stmdb	sp!, {r0, r1, r4, r5, r6, r7, r8, lr}
 8002d8c:	4604      	mov	r4, r0
 8002d8e:	b918      	cbnz	r0, 8002d98 <HAL_RCC_OscConfig+0x10>
 8002d90:	2001      	movs	r0, #1
 8002d92:	b002      	add	sp, #8
 8002d94:	e8bd 81f0 	ldmia.w	sp!, {r4, r5, r6, r7, r8, pc}
 8002d98:	6803      	ldr	r3, [r0, #0]
 8002d9a:	07d9      	lsls	r1, r3, #31
 8002d9c:	d414      	bmi.n	8002dc8 <HAL_RCC_OscConfig+0x40>
 8002d9e:	6823      	ldr	r3, [r4, #0]
 8002da0:	079a      	lsls	r2, r3, #30
 8002da2:	d458      	bmi.n	8002e56 <HAL_RCC_OscConfig+0xce>
 8002da4:	6823      	ldr	r3, [r4, #0]
 8002da6:	0719      	lsls	r1, r3, #28
 8002da8:	f100 80a1 	bmi.w	8002eee <HAL_RCC_OscConfig+0x166>
 8002dac:	6823      	ldr	r3, [r4, #0]
 8002dae:	075a      	lsls	r2, r3, #29
 8002db0:	f100 80c8 	bmi.w	8002f44 <HAL_RCC_OscConfig+0x1bc>
 8002db4:	6823      	ldr	r3, [r4, #0]
 8002db6:	069a      	lsls	r2, r3, #26
 8002db8:	f100 812f 	bmi.w	800301a <HAL_RCC_OscConfig+0x292>
 8002dbc:	69e3      	ldr	r3, [r4, #28]
 8002dbe:	2b00      	cmp	r3, #0
 8002dc0:	f040 815c 	bne.w	800307c <HAL_RCC_OscConfig+0x2f4>
 8002dc4:	2000      	movs	r0, #0
 8002dc6:	e7e4      	b.n	8002d92 <HAL_RCC_OscConfig+0xa>
 8002dc8:	4d9f      	ldr	r5, [pc, #636]	@ (8003048 <HAL_RCC_OscConfig+0x2c0>)
 8002dca:	68ab      	ldr	r3, [r5, #8]
 8002dcc:	68ea      	ldr	r2, [r5, #12]
 8002dce:	f003 030c 	and.w	r3, r3, #12
 8002dd2:	2b0c      	cmp	r3, #12
 8002dd4:	d10a      	bne.n	8002dec <HAL_RCC_OscConfig+0x64>
 8002dd6:	f002 0303 	and.w	r3, r2, #3
 8002dda:	2b03      	cmp	r3, #3
 8002ddc:	d108      	bne.n	8002df0 <HAL_RCC_OscConfig+0x68>
 8002dde:	682b      	ldr	r3, [r5, #0]
 8002de0:	039b      	lsls	r3, r3, #14
 8002de2:	d5dc      	bpl.n	8002d9e <HAL_RCC_OscConfig+0x16>
 8002de4:	6863      	ldr	r3, [r4, #4]
 8002de6:	2b00      	cmp	r3, #0
 8002de8:	d1d9      	bne.n	8002d9e <HAL_RCC_OscConfig+0x16>
 8002dea:	e7d1      	b.n	8002d90 <HAL_RCC_OscConfig+0x8>
 8002dec:	2b08      	cmp	r3, #8
 8002dee:	e7f5      	b.n	8002ddc <HAL_RCC_OscConfig+0x54>
 8002df0:	6863      	ldr	r3, [r4, #4]
 8002df2:	f5b3 3f80 	cmp.w	r3, #65536	@ 0x10000
 8002df6:	d110      	bne.n	8002e1a <HAL_RCC_OscConfig+0x92>
 8002df8:	682b      	ldr	r3, [r5, #0]
 8002dfa:	f443 3380 	orr.w	r3, r3, #65536	@ 0x10000
 8002dfe:	602b      	str	r3, [r5, #0]
 8002e00:	f7fe fafc 	bl	80013fc <HAL_GetTick>
 8002e04:	4606      	mov	r6, r0
 8002e06:	682b      	ldr	r3, [r5, #0]
 8002e08:	039f      	lsls	r7, r3, #14
 8002e0a:	d4c8      	bmi.n	8002d9e <HAL_RCC_OscConfig+0x16>
 8002e0c:	f7fe faf6 	bl	80013fc <HAL_GetTick>
 8002e10:	1b80      	subs	r0, r0, r6
 8002e12:	2864      	cmp	r0, #100	@ 0x64
 8002e14:	d9f7      	bls.n	8002e06 <HAL_RCC_OscConfig+0x7e>
 8002e16:	2003      	movs	r0, #3
 8002e18:	e7bb      	b.n	8002d92 <HAL_RCC_OscConfig+0xa>
 8002e1a:	f5b3 2fa0 	cmp.w	r3, #327680	@ 0x50000
 8002e1e:	d104      	bne.n	8002e2a <HAL_RCC_OscConfig+0xa2>
 8002e20:	682b      	ldr	r3, [r5, #0]
 8002e22:	f443 2380 	orr.w	r3, r3, #262144	@ 0x40000
 8002e26:	602b      	str	r3, [r5, #0]
 8002e28:	e7e6      	b.n	8002df8 <HAL_RCC_OscConfig+0x70>
 8002e2a:	682a      	ldr	r2, [r5, #0]
 8002e2c:	f422 3280 	bic.w	r2, r2, #65536	@ 0x10000
 8002e30:	602a      	str	r2, [r5, #0]
 8002e32:	682a      	ldr	r2, [r5, #0]
 8002e34:	f422 2280 	bic.w	r2, r2, #262144	@ 0x40000
 8002e38:	602a      	str	r2, [r5, #0]
 8002e3a:	2b00      	cmp	r3, #0
 8002e3c:	d1e0      	bne.n	8002e00 <HAL_RCC_OscConfig+0x78>
 8002e3e:	f7fe fadd 	bl	80013fc <HAL_GetTick>
 8002e42:	4606      	mov	r6, r0
 8002e44:	682b      	ldr	r3, [r5, #0]
 8002e46:	0399      	lsls	r1, r3, #14
 8002e48:	d5a9      	bpl.n	8002d9e <HAL_RCC_OscConfig+0x16>
 8002e4a:	f7fe fad7 	bl	80013fc <HAL_GetTick>
 8002e4e:	1b80      	subs	r0, r0, r6
 8002e50:	2864      	cmp	r0, #100	@ 0x64
 8002e52:	d9f7      	bls.n	8002e44 <HAL_RCC_OscConfig+0xbc>
 8002e54:	e7df      	b.n	8002e16 <HAL_RCC_OscConfig+0x8e>
 8002e56:	4d7c      	ldr	r5, [pc, #496]	@ (8003048 <HAL_RCC_OscConfig+0x2c0>)
 8002e58:	68ab      	ldr	r3, [r5, #8]
 8002e5a:	68ea      	ldr	r2, [r5, #12]
 8002e5c:	f003 030c 	and.w	r3, r3, #12
 8002e60:	2b0c      	cmp	r3, #12
 8002e62:	d117      	bne.n	8002e94 <HAL_RCC_OscConfig+0x10c>
 8002e64:	f002 0303 	and.w	r3, r2, #3
 8002e68:	2b02      	cmp	r3, #2
 8002e6a:	d115      	bne.n	8002e98 <HAL_RCC_OscConfig+0x110>
 8002e6c:	682b      	ldr	r3, [r5, #0]
 8002e6e:	055a      	lsls	r2, r3, #21
 8002e70:	d502      	bpl.n	8002e78 <HAL_RCC_OscConfig+0xf0>
 8002e72:	68e3      	ldr	r3, [r4, #12]
 8002e74:	2b00      	cmp	r3, #0
 8002e76:	d08b      	beq.n	8002d90 <HAL_RCC_OscConfig+0x8>
 8002e78:	686b      	ldr	r3, [r5, #4]
 8002e7a:	6922      	ldr	r2, [r4, #16]
 8002e7c:	f023 43fe 	bic.w	r3, r3, #2130706432	@ 0x7f000000
 8002e80:	ea43 6302 	orr.w	r3, r3, r2, lsl #24
 8002e84:	606b      	str	r3, [r5, #4]
 8002e86:	4b71      	ldr	r3, [pc, #452]	@ (800304c <HAL_RCC_OscConfig+0x2c4>)
 8002e88:	6818      	ldr	r0, [r3, #0]
 8002e8a:	f7fe fa75 	bl	8001378 <HAL_InitTick>
 8002e8e:	2800      	cmp	r0, #0
 8002e90:	d088      	beq.n	8002da4 <HAL_RCC_OscConfig+0x1c>
 8002e92:	e77d      	b.n	8002d90 <HAL_RCC_OscConfig+0x8>
 8002e94:	2b04      	cmp	r3, #4
 8002e96:	e7e8      	b.n	8002e6a <HAL_RCC_OscConfig+0xe2>
 8002e98:	68e3      	ldr	r3, [r4, #12]
 8002e9a:	b1bb      	cbz	r3, 8002ecc <HAL_RCC_OscConfig+0x144>
 8002e9c:	682b      	ldr	r3, [r5, #0]
 8002e9e:	f443 7380 	orr.w	r3, r3, #256	@ 0x100
 8002ea2:	602b      	str	r3, [r5, #0]
 8002ea4:	f7fe faaa 	bl	80013fc <HAL_GetTick>
 8002ea8:	4606      	mov	r6, r0
 8002eaa:	682b      	ldr	r3, [r5, #0]
 8002eac:	055b      	lsls	r3, r3, #21
 8002eae:	d507      	bpl.n	8002ec0 <HAL_RCC_OscConfig+0x138>
 8002eb0:	686b      	ldr	r3, [r5, #4]
 8002eb2:	6922      	ldr	r2, [r4, #16]
 8002eb4:	f023 43fe 	bic.w	r3, r3, #2130706432	@ 0x7f000000
 8002eb8:	ea43 6302 	orr.w	r3, r3, r2, lsl #24
 8002ebc:	606b      	str	r3, [r5, #4]
 8002ebe:	e771      	b.n	8002da4 <HAL_RCC_OscConfig+0x1c>
 8002ec0:	f7fe fa9c 	bl	80013fc <HAL_GetTick>
 8002ec4:	1b80      	subs	r0, r0, r6
 8002ec6:	2802      	cmp	r0, #2
 8002ec8:	d9ef      	bls.n	8002eaa <HAL_RCC_OscConfig+0x122>
 8002eca:	e7a4      	b.n	8002e16 <HAL_RCC_OscConfig+0x8e>
 8002ecc:	682b      	ldr	r3, [r5, #0]
 8002ece:	f423 7380 	bic.w	r3, r3, #256	@ 0x100
 8002ed2:	602b      	str	r3, [r5, #0]
 8002ed4:	f7fe fa92 	bl	80013fc <HAL_GetTick>
 8002ed8:	4606      	mov	r6, r0
 8002eda:	682b      	ldr	r3, [r5, #0]
 8002edc:	055f      	lsls	r7, r3, #21
 8002ede:	f57f af61 	bpl.w	8002da4 <HAL_RCC_OscConfig+0x1c>
 8002ee2:	f7fe fa8b 	bl	80013fc <HAL_GetTick>
 8002ee6:	1b80      	subs	r0, r0, r6
 8002ee8:	2802      	cmp	r0, #2
 8002eea:	d9f6      	bls.n	8002eda <HAL_RCC_OscConfig+0x152>
 8002eec:	e793      	b.n	8002e16 <HAL_RCC_OscConfig+0x8e>
 8002eee:	6963      	ldr	r3, [r4, #20]
 8002ef0:	4d55      	ldr	r5, [pc, #340]	@ (8003048 <HAL_RCC_OscConfig+0x2c0>)
 8002ef2:	b19b      	cbz	r3, 8002f1c <HAL_RCC_OscConfig+0x194>
 8002ef4:	f8d5 3094 	ldr.w	r3, [r5, #148]	@ 0x94
 8002ef8:	f043 0301 	orr.w	r3, r3, #1
 8002efc:	f8c5 3094 	str.w	r3, [r5, #148]	@ 0x94
 8002f00:	f7fe fa7c 	bl	80013fc <HAL_GetTick>
 8002f04:	4606      	mov	r6, r0
 8002f06:	f8d5 3094 	ldr.w	r3, [r5, #148]	@ 0x94
 8002f0a:	079b      	lsls	r3, r3, #30
 8002f0c:	f53f af4e 	bmi.w	8002dac <HAL_RCC_OscConfig+0x24>
 8002f10:	f7fe fa74 	bl	80013fc <HAL_GetTick>
 8002f14:	1b80      	subs	r0, r0, r6
 8002f16:	2802      	cmp	r0, #2
 8002f18:	d9f5      	bls.n	8002f06 <HAL_RCC_OscConfig+0x17e>
 8002f1a:	e77c      	b.n	8002e16 <HAL_RCC_OscConfig+0x8e>
 8002f1c:	f8d5 3094 	ldr.w	r3, [r5, #148]	@ 0x94
 8002f20:	f023 0301 	bic.w	r3, r3, #1
 8002f24:	f8c5 3094 	str.w	r3, [r5, #148]	@ 0x94
 8002f28:	f7fe fa68 	bl	80013fc <HAL_GetTick>
 8002f2c:	4606      	mov	r6, r0
 8002f2e:	f8d5 3094 	ldr.w	r3, [r5, #148]	@ 0x94
 8002f32:	079f      	lsls	r7, r3, #30
 8002f34:	f57f af3a 	bpl.w	8002dac <HAL_RCC_OscConfig+0x24>
 8002f38:	f7fe fa60 	bl	80013fc <HAL_GetTick>
 8002f3c:	1b80      	subs	r0, r0, r6
 8002f3e:	2802      	cmp	r0, #2
 8002f40:	d9f5      	bls.n	8002f2e <HAL_RCC_OscConfig+0x1a6>
 8002f42:	e768      	b.n	8002e16 <HAL_RCC_OscConfig+0x8e>
 8002f44:	4d40      	ldr	r5, [pc, #256]	@ (8003048 <HAL_RCC_OscConfig+0x2c0>)
 8002f46:	6dab      	ldr	r3, [r5, #88]	@ 0x58
 8002f48:	00d8      	lsls	r0, r3, #3
 8002f4a:	d427      	bmi.n	8002f9c <HAL_RCC_OscConfig+0x214>
 8002f4c:	6dab      	ldr	r3, [r5, #88]	@ 0x58
 8002f4e:	f043 5380 	orr.w	r3, r3, #268435456	@ 0x10000000
 8002f52:	65ab      	str	r3, [r5, #88]	@ 0x58
 8002f54:	6dab      	ldr	r3, [r5, #88]	@ 0x58
 8002f56:	f003 5380 	and.w	r3, r3, #268435456	@ 0x10000000
 8002f5a:	9301      	str	r3, [sp, #4]
 8002f5c:	9b01      	ldr	r3, [sp, #4]
 8002f5e:	2701      	movs	r7, #1
 8002f60:	4e3b      	ldr	r6, [pc, #236]	@ (8003050 <HAL_RCC_OscConfig+0x2c8>)
 8002f62:	6833      	ldr	r3, [r6, #0]
 8002f64:	05d9      	lsls	r1, r3, #23
 8002f66:	d51b      	bpl.n	8002fa0 <HAL_RCC_OscConfig+0x218>
 8002f68:	68a3      	ldr	r3, [r4, #8]
 8002f6a:	2b01      	cmp	r3, #1
 8002f6c:	d129      	bne.n	8002fc2 <HAL_RCC_OscConfig+0x23a>
 8002f6e:	f8d5 3090 	ldr.w	r3, [r5, #144]	@ 0x90
 8002f72:	f043 0301 	orr.w	r3, r3, #1
 8002f76:	f8c5 3090 	str.w	r3, [r5, #144]	@ 0x90
 8002f7a:	f7fe fa3f 	bl	80013fc <HAL_GetTick>
 8002f7e:	f241 3888 	movw	r8, #5000	@ 0x1388
 8002f82:	4606      	mov	r6, r0
 8002f84:	f8d5 3090 	ldr.w	r3, [r5, #144]	@ 0x90
 8002f88:	079b      	lsls	r3, r3, #30
 8002f8a:	d540      	bpl.n	800300e <HAL_RCC_OscConfig+0x286>
 8002f8c:	2f00      	cmp	r7, #0
 8002f8e:	f43f af11 	beq.w	8002db4 <HAL_RCC_OscConfig+0x2c>
 8002f92:	6dab      	ldr	r3, [r5, #88]	@ 0x58
 8002f94:	f023 5380 	bic.w	r3, r3, #268435456	@ 0x10000000
 8002f98:	65ab      	str	r3, [r5, #88]	@ 0x58
 8002f9a:	e70b      	b.n	8002db4 <HAL_RCC_OscConfig+0x2c>
 8002f9c:	2700      	movs	r7, #0
 8002f9e:	e7df      	b.n	8002f60 <HAL_RCC_OscConfig+0x1d8>
 8002fa0:	6833      	ldr	r3, [r6, #0]
 8002fa2:	f443 7380 	orr.w	r3, r3, #256	@ 0x100
 8002fa6:	6033      	str	r3, [r6, #0]
 8002fa8:	f7fe fa28 	bl	80013fc <HAL_GetTick>
 8002fac:	4680      	mov	r8, r0
 8002fae:	6833      	ldr	r3, [r6, #0]
 8002fb0:	05da      	lsls	r2, r3, #23
 8002fb2:	d4d9      	bmi.n	8002f68 <HAL_RCC_OscConfig+0x1e0>
 8002fb4:	f7fe fa22 	bl	80013fc <HAL_GetTick>
 8002fb8:	eba0 0008 	sub.w	r0, r0, r8
 8002fbc:	2802      	cmp	r0, #2
 8002fbe:	d9f6      	bls.n	8002fae <HAL_RCC_OscConfig+0x226>
 8002fc0:	e729      	b.n	8002e16 <HAL_RCC_OscConfig+0x8e>
 8002fc2:	2b05      	cmp	r3, #5
 8002fc4:	d106      	bne.n	8002fd4 <HAL_RCC_OscConfig+0x24c>
 8002fc6:	f8d5 3090 	ldr.w	r3, [r5, #144]	@ 0x90
 8002fca:	f043 0304 	orr.w	r3, r3, #4
 8002fce:	f8c5 3090 	str.w	r3, [r5, #144]	@ 0x90
 8002fd2:	e7cc      	b.n	8002f6e <HAL_RCC_OscConfig+0x1e6>
 8002fd4:	f8d5 2090 	ldr.w	r2, [r5, #144]	@ 0x90
 8002fd8:	f022 0201 	bic.w	r2, r2, #1
 8002fdc:	f8c5 2090 	str.w	r2, [r5, #144]	@ 0x90
 8002fe0:	f8d5 2090 	ldr.w	r2, [r5, #144]	@ 0x90
 8002fe4:	f022 0204 	bic.w	r2, r2, #4
 8002fe8:	f8c5 2090 	str.w	r2, [r5, #144]	@ 0x90
 8002fec:	2b00      	cmp	r3, #0
 8002fee:	d1c4      	bne.n	8002f7a <HAL_RCC_OscConfig+0x1f2>
 8002ff0:	f7fe fa04 	bl	80013fc <HAL_GetTick>
 8002ff4:	f241 3888 	movw	r8, #5000	@ 0x1388
 8002ff8:	4606      	mov	r6, r0
 8002ffa:	f8d5 3090 	ldr.w	r3, [r5, #144]	@ 0x90
 8002ffe:	0799      	lsls	r1, r3, #30
 8003000:	d5c4      	bpl.n	8002f8c <HAL_RCC_OscConfig+0x204>
 8003002:	f7fe f9fb 	bl	80013fc <HAL_GetTick>
 8003006:	1b80      	subs	r0, r0, r6
 8003008:	4540      	cmp	r0, r8
 800300a:	d9f6      	bls.n	8002ffa <HAL_RCC_OscConfig+0x272>
 800300c:	e703      	b.n	8002e16 <HAL_RCC_OscConfig+0x8e>
 800300e:	f7fe f9f5 	bl	80013fc <HAL_GetTick>
 8003012:	1b80      	subs	r0, r0, r6
 8003014:	4540      	cmp	r0, r8
 8003016:	d9b5      	bls.n	8002f84 <HAL_RCC_OscConfig+0x1fc>
 8003018:	e6fd      	b.n	8002e16 <HAL_RCC_OscConfig+0x8e>
 800301a:	69a3      	ldr	r3, [r4, #24]
 800301c:	4d0a      	ldr	r5, [pc, #40]	@ (8003048 <HAL_RCC_OscConfig+0x2c0>)
 800301e:	b1cb      	cbz	r3, 8003054 <HAL_RCC_OscConfig+0x2cc>
 8003020:	f8d5 3098 	ldr.w	r3, [r5, #152]	@ 0x98
 8003024:	f043 0301 	orr.w	r3, r3, #1
 8003028:	f8c5 3098 	str.w	r3, [r5, #152]	@ 0x98
 800302c:	f7fe f9e6 	bl	80013fc <HAL_GetTick>
 8003030:	4606      	mov	r6, r0
 8003032:	f8d5 3098 	ldr.w	r3, [r5, #152]	@ 0x98
 8003036:	079b      	lsls	r3, r3, #30
 8003038:	f53f aec0 	bmi.w	8002dbc <HAL_RCC_OscConfig+0x34>
 800303c:	f7fe f9de 	bl	80013fc <HAL_GetTick>
 8003040:	1b80      	subs	r0, r0, r6
 8003042:	2802      	cmp	r0, #2
 8003044:	d9f5      	bls.n	8003032 <HAL_RCC_OscConfig+0x2aa>
 8003046:	e6e6      	b.n	8002e16 <HAL_RCC_OscConfig+0x8e>
 8003048:	40021000 	.word	0x40021000
 800304c:	20000018 	.word	0x20000018
 8003050:	40007000 	.word	0x40007000
 8003054:	f8d5 3098 	ldr.w	r3, [r5, #152]	@ 0x98
 8003058:	f023 0301 	bic.w	r3, r3, #1
 800305c:	f8c5 3098 	str.w	r3, [r5, #152]	@ 0x98
 8003060:	f7fe f9cc 	bl	80013fc <HAL_GetTick>
 8003064:	4606      	mov	r6, r0
 8003066:	f8d5 3098 	ldr.w	r3, [r5, #152]	@ 0x98
 800306a:	079f      	lsls	r7, r3, #30
 800306c:	f57f aea6 	bpl.w	8002dbc <HAL_RCC_OscConfig+0x34>
 8003070:	f7fe f9c4 	bl	80013fc <HAL_GetTick>
 8003074:	1b80      	subs	r0, r0, r6
 8003076:	2802      	cmp	r0, #2
 8003078:	d9f5      	bls.n	8003066 <HAL_RCC_OscConfig+0x2de>
 800307a:	e6cc      	b.n	8002e16 <HAL_RCC_OscConfig+0x8e>
 800307c:	4d45      	ldr	r5, [pc, #276]	@ (8003194 <HAL_RCC_OscConfig+0x40c>)
 800307e:	68aa      	ldr	r2, [r5, #8]
 8003080:	f002 020c 	and.w	r2, r2, #12
 8003084:	2a0c      	cmp	r2, #12
 8003086:	d051      	beq.n	800312c <HAL_RCC_OscConfig+0x3a4>
 8003088:	2b02      	cmp	r3, #2
 800308a:	682b      	ldr	r3, [r5, #0]
 800308c:	f023 7380 	bic.w	r3, r3, #16777216	@ 0x1000000
 8003090:	602b      	str	r3, [r5, #0]
 8003092:	d13a      	bne.n	800310a <HAL_RCC_OscConfig+0x382>
 8003094:	f7fe f9b2 	bl	80013fc <HAL_GetTick>
 8003098:	4606      	mov	r6, r0
 800309a:	682b      	ldr	r3, [r5, #0]
 800309c:	0199      	lsls	r1, r3, #6
 800309e:	d42e      	bmi.n	80030fe <HAL_RCC_OscConfig+0x376>
 80030a0:	68ea      	ldr	r2, [r5, #12]
 80030a2:	4b3d      	ldr	r3, [pc, #244]	@ (8003198 <HAL_RCC_OscConfig+0x410>)
 80030a4:	4013      	ands	r3, r2
 80030a6:	6a22      	ldr	r2, [r4, #32]
 80030a8:	4313      	orrs	r3, r2
 80030aa:	6aa2      	ldr	r2, [r4, #40]	@ 0x28
 80030ac:	ea43 2302 	orr.w	r3, r3, r2, lsl #8
 80030b0:	6ae2      	ldr	r2, [r4, #44]	@ 0x2c
 80030b2:	ea43 63c2 	orr.w	r3, r3, r2, lsl #27
 80030b6:	6a62      	ldr	r2, [r4, #36]	@ 0x24
 80030b8:	3a01      	subs	r2, #1
 80030ba:	ea43 1302 	orr.w	r3, r3, r2, lsl #4
 80030be:	6b22      	ldr	r2, [r4, #48]	@ 0x30
 80030c0:	0852      	lsrs	r2, r2, #1
 80030c2:	3a01      	subs	r2, #1
 80030c4:	ea43 5342 	orr.w	r3, r3, r2, lsl #21
 80030c8:	6b62      	ldr	r2, [r4, #52]	@ 0x34
 80030ca:	0852      	lsrs	r2, r2, #1
 80030cc:	3a01      	subs	r2, #1
 80030ce:	ea43 6342 	orr.w	r3, r3, r2, lsl #25
 80030d2:	60eb      	str	r3, [r5, #12]
 80030d4:	682b      	ldr	r3, [r5, #0]
 80030d6:	f043 7380 	orr.w	r3, r3, #16777216	@ 0x1000000
 80030da:	602b      	str	r3, [r5, #0]
 80030dc:	68eb      	ldr	r3, [r5, #12]
 80030de:	f043 7380 	orr.w	r3, r3, #16777216	@ 0x1000000
 80030e2:	60eb      	str	r3, [r5, #12]
 80030e4:	f7fe f98a 	bl	80013fc <HAL_GetTick>
 80030e8:	4604      	mov	r4, r0
 80030ea:	682b      	ldr	r3, [r5, #0]
 80030ec:	019a      	lsls	r2, r3, #6
 80030ee:	f53f ae69 	bmi.w	8002dc4 <HAL_RCC_OscConfig+0x3c>
 80030f2:	f7fe f983 	bl	80013fc <HAL_GetTick>
 80030f6:	1b00      	subs	r0, r0, r4
 80030f8:	2802      	cmp	r0, #2
 80030fa:	d9f6      	bls.n	80030ea <HAL_RCC_OscConfig+0x362>
 80030fc:	e68b      	b.n	8002e16 <HAL_RCC_OscConfig+0x8e>
 80030fe:	f7fe f97d 	bl	80013fc <HAL_GetTick>
 8003102:	1b80      	subs	r0, r0, r6
 8003104:	2802      	cmp	r0, #2
 8003106:	d9c8      	bls.n	800309a <HAL_RCC_OscConfig+0x312>
 8003108:	e685      	b.n	8002e16 <HAL_RCC_OscConfig+0x8e>
 800310a:	f7fe f977 	bl	80013fc <HAL_GetTick>
 800310e:	4604      	mov	r4, r0
 8003110:	682b      	ldr	r3, [r5, #0]
 8003112:	019b      	lsls	r3, r3, #6
 8003114:	d404      	bmi.n	8003120 <HAL_RCC_OscConfig+0x398>
 8003116:	68ea      	ldr	r2, [r5, #12]
 8003118:	4b20      	ldr	r3, [pc, #128]	@ (800319c <HAL_RCC_OscConfig+0x414>)
 800311a:	4013      	ands	r3, r2
 800311c:	60eb      	str	r3, [r5, #12]
 800311e:	e651      	b.n	8002dc4 <HAL_RCC_OscConfig+0x3c>
 8003120:	f7fe f96c 	bl	80013fc <HAL_GetTick>
 8003124:	1b00      	subs	r0, r0, r4
 8003126:	2802      	cmp	r0, #2
 8003128:	d9f2      	bls.n	8003110 <HAL_RCC_OscConfig+0x388>
 800312a:	e674      	b.n	8002e16 <HAL_RCC_OscConfig+0x8e>
 800312c:	2b01      	cmp	r3, #1
 800312e:	f43f ae2f 	beq.w	8002d90 <HAL_RCC_OscConfig+0x8>
 8003132:	68eb      	ldr	r3, [r5, #12]
 8003134:	6a22      	ldr	r2, [r4, #32]
 8003136:	f003 0103 	and.w	r1, r3, #3
 800313a:	4291      	cmp	r1, r2
 800313c:	f47f ae28 	bne.w	8002d90 <HAL_RCC_OscConfig+0x8>
 8003140:	6a61      	ldr	r1, [r4, #36]	@ 0x24
 8003142:	f003 02f0 	and.w	r2, r3, #240	@ 0xf0
 8003146:	3901      	subs	r1, #1
 8003148:	ebb2 1f01 	cmp.w	r2, r1, lsl #4
 800314c:	f47f ae20 	bne.w	8002d90 <HAL_RCC_OscConfig+0x8>
 8003150:	6aa1      	ldr	r1, [r4, #40]	@ 0x28
 8003152:	f403 42fe 	and.w	r2, r3, #32512	@ 0x7f00
 8003156:	ebb2 2f01 	cmp.w	r2, r1, lsl #8
 800315a:	f47f ae19 	bne.w	8002d90 <HAL_RCC_OscConfig+0x8>
 800315e:	6ae1      	ldr	r1, [r4, #44]	@ 0x2c
 8003160:	f003 4278 	and.w	r2, r3, #4160749568	@ 0xf8000000
 8003164:	ebb2 6fc1 	cmp.w	r2, r1, lsl #27
 8003168:	f47f ae12 	bne.w	8002d90 <HAL_RCC_OscConfig+0x8>
 800316c:	6b22      	ldr	r2, [r4, #48]	@ 0x30
 800316e:	0852      	lsrs	r2, r2, #1
 8003170:	f403 01c0 	and.w	r1, r3, #6291456	@ 0x600000
 8003174:	3a01      	subs	r2, #1
 8003176:	ebb1 5f42 	cmp.w	r1, r2, lsl #21
 800317a:	f47f ae09 	bne.w	8002d90 <HAL_RCC_OscConfig+0x8>
 800317e:	6b62      	ldr	r2, [r4, #52]	@ 0x34
 8003180:	0852      	lsrs	r2, r2, #1
 8003182:	3a01      	subs	r2, #1
 8003184:	f003 63c0 	and.w	r3, r3, #100663296	@ 0x6000000
 8003188:	ebb3 6f42 	cmp.w	r3, r2, lsl #25
 800318c:	bf14      	ite	ne
 800318e:	2001      	movne	r0, #1
 8003190:	2000      	moveq	r0, #0
 8003192:	e5fe      	b.n	8002d92 <HAL_RCC_OscConfig+0xa>
 8003194:	40021000 	.word	0x40021000
 8003198:	019f800c 	.word	0x019f800c
 800319c:	feeefffc 	.word	0xfeeefffc

080031a0 <HAL_RCC_GetSysClockFreq>:
 80031a0:	4b17      	ldr	r3, [pc, #92]	@ (8003200 <HAL_RCC_GetSysClockFreq+0x60>)
 80031a2:	689a      	ldr	r2, [r3, #8]
 80031a4:	f002 020c 	and.w	r2, r2, #12
 80031a8:	2a04      	cmp	r2, #4
 80031aa:	d023      	beq.n	80031f4 <HAL_RCC_GetSysClockFreq+0x54>
 80031ac:	689a      	ldr	r2, [r3, #8]
 80031ae:	f002 020c 	and.w	r2, r2, #12
 80031b2:	2a08      	cmp	r2, #8
 80031b4:	d020      	beq.n	80031f8 <HAL_RCC_GetSysClockFreq+0x58>
 80031b6:	689a      	ldr	r2, [r3, #8]
 80031b8:	f002 020c 	and.w	r2, r2, #12
 80031bc:	2a0c      	cmp	r2, #12
 80031be:	d11d      	bne.n	80031fc <HAL_RCC_GetSysClockFreq+0x5c>
 80031c0:	68d9      	ldr	r1, [r3, #12]
 80031c2:	68da      	ldr	r2, [r3, #12]
 80031c4:	68d8      	ldr	r0, [r3, #12]
 80031c6:	68db      	ldr	r3, [r3, #12]
 80031c8:	f001 0103 	and.w	r1, r1, #3
 80031cc:	f3c3 6341 	ubfx	r3, r3, #25, #2
 80031d0:	2903      	cmp	r1, #3
 80031d2:	f3c2 1203 	ubfx	r2, r2, #4, #4
 80031d6:	f3c0 2006 	ubfx	r0, r0, #8, #7
 80031da:	f103 0301 	add.w	r3, r3, #1
 80031de:	bf0c      	ite	eq
 80031e0:	4908      	ldreq	r1, [pc, #32]	@ (8003204 <HAL_RCC_GetSysClockFreq+0x64>)
 80031e2:	4909      	ldrne	r1, [pc, #36]	@ (8003208 <HAL_RCC_GetSysClockFreq+0x68>)
 80031e4:	005b      	lsls	r3, r3, #1
 80031e6:	3201      	adds	r2, #1
 80031e8:	fbb1 f2f2 	udiv	r2, r1, r2
 80031ec:	4350      	muls	r0, r2
 80031ee:	fbb0 f0f3 	udiv	r0, r0, r3
 80031f2:	4770      	bx	lr
 80031f4:	4804      	ldr	r0, [pc, #16]	@ (8003208 <HAL_RCC_GetSysClockFreq+0x68>)
 80031f6:	4770      	bx	lr
 80031f8:	4802      	ldr	r0, [pc, #8]	@ (8003204 <HAL_RCC_GetSysClockFreq+0x64>)
 80031fa:	4770      	bx	lr
 80031fc:	2000      	movs	r0, #0
 80031fe:	4770      	bx	lr
 8003200:	40021000 	.word	0x40021000
 8003204:	007a1200 	.word	0x007a1200
 8003208:	00f42400 	.word	0x00f42400

0800320c <HAL_RCC_ClockConfig>:
 800320c:	e92d 43f8 	stmdb	sp!, {r3, r4, r5, r6, r7, r8, r9, lr}
 8003210:	460e      	mov	r6, r1
 8003212:	4605      	mov	r5, r0
 8003214:	b910      	cbnz	r0, 800321c <HAL_RCC_ClockConfig+0x10>
 8003216:	2001      	movs	r0, #1
 8003218:	e8bd 83f8 	ldmia.w	sp!, {r3, r4, r5, r6, r7, r8, r9, pc}
 800321c:	4a6d      	ldr	r2, [pc, #436]	@ (80033d4 <HAL_RCC_ClockConfig+0x1c8>)
 800321e:	6813      	ldr	r3, [r2, #0]
 8003220:	f003 030f 	and.w	r3, r3, #15
 8003224:	428b      	cmp	r3, r1
 8003226:	d345      	bcc.n	80032b4 <HAL_RCC_ClockConfig+0xa8>
 8003228:	6829      	ldr	r1, [r5, #0]
 800322a:	f011 0801 	ands.w	r8, r1, #1
 800322e:	d14c      	bne.n	80032ca <HAL_RCC_ClockConfig+0xbe>
 8003230:	682a      	ldr	r2, [r5, #0]
 8003232:	0791      	lsls	r1, r2, #30
 8003234:	f140 80a7 	bpl.w	8003386 <HAL_RCC_ClockConfig+0x17a>
 8003238:	4b67      	ldr	r3, [pc, #412]	@ (80033d8 <HAL_RCC_ClockConfig+0x1cc>)
 800323a:	f012 0f04 	tst.w	r2, #4
 800323e:	bf1e      	ittt	ne
 8003240:	6899      	ldrne	r1, [r3, #8]
 8003242:	f441 61e0 	orrne.w	r1, r1, #1792	@ 0x700
 8003246:	6099      	strne	r1, [r3, #8]
 8003248:	0712      	lsls	r2, r2, #28
 800324a:	bf41      	itttt	mi
 800324c:	689a      	ldrmi	r2, [r3, #8]
 800324e:	f422 527c 	bicmi.w	r2, r2, #16128	@ 0x3f00
 8003252:	f442 62e0 	orrmi.w	r2, r2, #1792	@ 0x700
 8003256:	609a      	strmi	r2, [r3, #8]
 8003258:	689a      	ldr	r2, [r3, #8]
 800325a:	68a9      	ldr	r1, [r5, #8]
 800325c:	f022 02f0 	bic.w	r2, r2, #240	@ 0xf0
 8003260:	430a      	orrs	r2, r1
 8003262:	609a      	str	r2, [r3, #8]
 8003264:	4c5b      	ldr	r4, [pc, #364]	@ (80033d4 <HAL_RCC_ClockConfig+0x1c8>)
 8003266:	6823      	ldr	r3, [r4, #0]
 8003268:	f003 030f 	and.w	r3, r3, #15
 800326c:	42b3      	cmp	r3, r6
 800326e:	f200 8093 	bhi.w	8003398 <HAL_RCC_ClockConfig+0x18c>
 8003272:	682a      	ldr	r2, [r5, #0]
 8003274:	4c58      	ldr	r4, [pc, #352]	@ (80033d8 <HAL_RCC_ClockConfig+0x1cc>)
 8003276:	f012 0f04 	tst.w	r2, #4
 800327a:	f040 80a3 	bne.w	80033c4 <HAL_RCC_ClockConfig+0x1b8>
 800327e:	0713      	lsls	r3, r2, #28
 8003280:	d506      	bpl.n	8003290 <HAL_RCC_ClockConfig+0x84>
 8003282:	68a3      	ldr	r3, [r4, #8]
 8003284:	692a      	ldr	r2, [r5, #16]
 8003286:	f423 5360 	bic.w	r3, r3, #14336	@ 0x3800
 800328a:	ea43 03c2 	orr.w	r3, r3, r2, lsl #3
 800328e:	60a3      	str	r3, [r4, #8]
 8003290:	f7ff ff86 	bl	80031a0 <HAL_RCC_GetSysClockFreq>
 8003294:	68a3      	ldr	r3, [r4, #8]
 8003296:	4a51      	ldr	r2, [pc, #324]	@ (80033dc <HAL_RCC_ClockConfig+0x1d0>)
 8003298:	f3c3 1303 	ubfx	r3, r3, #4, #4
 800329c:	5cd3      	ldrb	r3, [r2, r3]
 800329e:	f003 031f 	and.w	r3, r3, #31
 80032a2:	40d8      	lsrs	r0, r3
 80032a4:	4b4e      	ldr	r3, [pc, #312]	@ (80033e0 <HAL_RCC_ClockConfig+0x1d4>)
 80032a6:	6018      	str	r0, [r3, #0]
 80032a8:	4b4e      	ldr	r3, [pc, #312]	@ (80033e4 <HAL_RCC_ClockConfig+0x1d8>)
 80032aa:	6818      	ldr	r0, [r3, #0]
 80032ac:	e8bd 43f8 	ldmia.w	sp!, {r3, r4, r5, r6, r7, r8, r9, lr}
 80032b0:	f7fe b862 	b.w	8001378 <HAL_InitTick>
 80032b4:	6813      	ldr	r3, [r2, #0]
 80032b6:	f023 030f 	bic.w	r3, r3, #15
 80032ba:	430b      	orrs	r3, r1
 80032bc:	6013      	str	r3, [r2, #0]
 80032be:	6813      	ldr	r3, [r2, #0]
 80032c0:	f003 030f 	and.w	r3, r3, #15
 80032c4:	428b      	cmp	r3, r1
 80032c6:	d1a6      	bne.n	8003216 <HAL_RCC_ClockConfig+0xa>
 80032c8:	e7ae      	b.n	8003228 <HAL_RCC_ClockConfig+0x1c>
 80032ca:	686f      	ldr	r7, [r5, #4]
 80032cc:	4c42      	ldr	r4, [pc, #264]	@ (80033d8 <HAL_RCC_ClockConfig+0x1cc>)
 80032ce:	2f03      	cmp	r7, #3
 80032d0:	6823      	ldr	r3, [r4, #0]
 80032d2:	d149      	bne.n	8003368 <HAL_RCC_ClockConfig+0x15c>
 80032d4:	019b      	lsls	r3, r3, #6
 80032d6:	d59e      	bpl.n	8003216 <HAL_RCC_ClockConfig+0xa>
 80032d8:	68e3      	ldr	r3, [r4, #12]
 80032da:	68e2      	ldr	r2, [r4, #12]
 80032dc:	f003 0303 	and.w	r3, r3, #3
 80032e0:	2b03      	cmp	r3, #3
 80032e2:	68e3      	ldr	r3, [r4, #12]
 80032e4:	bf0c      	ite	eq
 80032e6:	4840      	ldreq	r0, [pc, #256]	@ (80033e8 <HAL_RCC_ClockConfig+0x1dc>)
 80032e8:	4840      	ldrne	r0, [pc, #256]	@ (80033ec <HAL_RCC_ClockConfig+0x1e0>)
 80032ea:	f3c2 1203 	ubfx	r2, r2, #4, #4
 80032ee:	f3c3 2306 	ubfx	r3, r3, #8, #7
 80032f2:	3201      	adds	r2, #1
 80032f4:	fbb0 f2f2 	udiv	r2, r0, r2
 80032f8:	4353      	muls	r3, r2
 80032fa:	68e2      	ldr	r2, [r4, #12]
 80032fc:	f3c2 6241 	ubfx	r2, r2, #25, #2
 8003300:	3201      	adds	r2, #1
 8003302:	0052      	lsls	r2, r2, #1
 8003304:	fbb3 f3f2 	udiv	r3, r3, r2
 8003308:	4a39      	ldr	r2, [pc, #228]	@ (80033f0 <HAL_RCC_ClockConfig+0x1e4>)
 800330a:	4293      	cmp	r3, r2
 800330c:	d81a      	bhi.n	8003344 <HAL_RCC_ClockConfig+0x138>
 800330e:	f04f 0800 	mov.w	r8, #0
 8003312:	68a3      	ldr	r3, [r4, #8]
 8003314:	f023 0303 	bic.w	r3, r3, #3
 8003318:	433b      	orrs	r3, r7
 800331a:	60a3      	str	r3, [r4, #8]
 800331c:	f7fe f86e 	bl	80013fc <HAL_GetTick>
 8003320:	f241 3988 	movw	r9, #5000	@ 0x1388
 8003324:	4607      	mov	r7, r0
 8003326:	68a3      	ldr	r3, [r4, #8]
 8003328:	686a      	ldr	r2, [r5, #4]
 800332a:	f003 030c 	and.w	r3, r3, #12
 800332e:	ebb3 0f82 	cmp.w	r3, r2, lsl #2
 8003332:	f43f af7d 	beq.w	8003230 <HAL_RCC_ClockConfig+0x24>
 8003336:	f7fe f861 	bl	80013fc <HAL_GetTick>
 800333a:	1bc0      	subs	r0, r0, r7
 800333c:	4548      	cmp	r0, r9
 800333e:	d9f2      	bls.n	8003326 <HAL_RCC_ClockConfig+0x11a>
 8003340:	2003      	movs	r0, #3
 8003342:	e769      	b.n	8003218 <HAL_RCC_ClockConfig+0xc>
 8003344:	68a3      	ldr	r3, [r4, #8]
 8003346:	f013 0ff0 	tst.w	r3, #240	@ 0xf0
 800334a:	d004      	beq.n	8003356 <HAL_RCC_ClockConfig+0x14a>
 800334c:	0788      	lsls	r0, r1, #30
 800334e:	d5de      	bpl.n	800330e <HAL_RCC_ClockConfig+0x102>
 8003350:	68ab      	ldr	r3, [r5, #8]
 8003352:	2b00      	cmp	r3, #0
 8003354:	d1db      	bne.n	800330e <HAL_RCC_ClockConfig+0x102>
 8003356:	68a3      	ldr	r3, [r4, #8]
 8003358:	f023 03f0 	bic.w	r3, r3, #240	@ 0xf0
 800335c:	f043 0380 	orr.w	r3, r3, #128	@ 0x80
 8003360:	60a3      	str	r3, [r4, #8]
 8003362:	f04f 0880 	mov.w	r8, #128	@ 0x80
 8003366:	e7d4      	b.n	8003312 <HAL_RCC_ClockConfig+0x106>
 8003368:	2f02      	cmp	r7, #2
 800336a:	d109      	bne.n	8003380 <HAL_RCC_ClockConfig+0x174>
 800336c:	f413 3f00 	tst.w	r3, #131072	@ 0x20000
 8003370:	f43f af51 	beq.w	8003216 <HAL_RCC_ClockConfig+0xa>
 8003374:	f7ff ff14 	bl	80031a0 <HAL_RCC_GetSysClockFreq>
 8003378:	4b1d      	ldr	r3, [pc, #116]	@ (80033f0 <HAL_RCC_ClockConfig+0x1e4>)
 800337a:	4298      	cmp	r0, r3
 800337c:	d9c7      	bls.n	800330e <HAL_RCC_ClockConfig+0x102>
 800337e:	e7ea      	b.n	8003356 <HAL_RCC_ClockConfig+0x14a>
 8003380:	f413 6f80 	tst.w	r3, #1024	@ 0x400
 8003384:	e7f4      	b.n	8003370 <HAL_RCC_ClockConfig+0x164>
 8003386:	f1b8 0f80 	cmp.w	r8, #128	@ 0x80
 800338a:	bf01      	itttt	eq
 800338c:	4a12      	ldreq	r2, [pc, #72]	@ (80033d8 <HAL_RCC_ClockConfig+0x1cc>)
 800338e:	6893      	ldreq	r3, [r2, #8]
 8003390:	f023 03f0 	biceq.w	r3, r3, #240	@ 0xf0
 8003394:	6093      	streq	r3, [r2, #8]
 8003396:	e765      	b.n	8003264 <HAL_RCC_ClockConfig+0x58>
 8003398:	6823      	ldr	r3, [r4, #0]
 800339a:	f023 030f 	bic.w	r3, r3, #15
 800339e:	4333      	orrs	r3, r6
 80033a0:	6023      	str	r3, [r4, #0]
 80033a2:	f7fe f82b 	bl	80013fc <HAL_GetTick>
 80033a6:	f241 3888 	movw	r8, #5000	@ 0x1388
 80033aa:	4607      	mov	r7, r0
 80033ac:	6823      	ldr	r3, [r4, #0]
 80033ae:	f003 030f 	and.w	r3, r3, #15
 80033b2:	42b3      	cmp	r3, r6
 80033b4:	f43f af5d 	beq.w	8003272 <HAL_RCC_ClockConfig+0x66>
 80033b8:	f7fe f820 	bl	80013fc <HAL_GetTick>
 80033bc:	1bc0      	subs	r0, r0, r7
 80033be:	4540      	cmp	r0, r8
 80033c0:	d9f4      	bls.n	80033ac <HAL_RCC_ClockConfig+0x1a0>
 80033c2:	e7bd      	b.n	8003340 <HAL_RCC_ClockConfig+0x134>
 80033c4:	68a3      	ldr	r3, [r4, #8]
 80033c6:	68e9      	ldr	r1, [r5, #12]
 80033c8:	f423 63e0 	bic.w	r3, r3, #1792	@ 0x700
 80033cc:	430b      	orrs	r3, r1
 80033ce:	60a3      	str	r3, [r4, #8]
 80033d0:	e755      	b.n	800327e <HAL_RCC_ClockConfig+0x72>
 80033d2:	bf00      	nop
 80033d4:	40022000 	.word	0x40022000
 80033d8:	40021000 	.word	0x40021000
 80033dc:	08004be0 	.word	0x08004be0
 80033e0:	20000010 	.word	0x20000010
 80033e4:	20000018 	.word	0x20000018
 80033e8:	007a1200 	.word	0x007a1200
 80033ec:	00f42400 	.word	0x00f42400
 80033f0:	04c4b400 	.word	0x04c4b400

080033f4 <HAL_RCC_GetPCLK1Freq>:
 80033f4:	4b05      	ldr	r3, [pc, #20]	@ (800340c <HAL_RCC_GetPCLK1Freq+0x18>)
 80033f6:	4a06      	ldr	r2, [pc, #24]	@ (8003410 <HAL_RCC_GetPCLK1Freq+0x1c>)
 80033f8:	689b      	ldr	r3, [r3, #8]
 80033fa:	f3c3 2302 	ubfx	r3, r3, #8, #3
 80033fe:	5cd3      	ldrb	r3, [r2, r3]
 8003400:	4a04      	ldr	r2, [pc, #16]	@ (8003414 <HAL_RCC_GetPCLK1Freq+0x20>)
 8003402:	6810      	ldr	r0, [r2, #0]
 8003404:	f003 031f 	and.w	r3, r3, #31
 8003408:	40d8      	lsrs	r0, r3
 800340a:	4770      	bx	lr
 800340c:	40021000 	.word	0x40021000
 8003410:	08004bd8 	.word	0x08004bd8
 8003414:	20000010 	.word	0x20000010

08003418 <HAL_RCC_GetPCLK2Freq>:
 8003418:	4b05      	ldr	r3, [pc, #20]	@ (8003430 <HAL_RCC_GetPCLK2Freq+0x18>)
 800341a:	4a06      	ldr	r2, [pc, #24]	@ (8003434 <HAL_RCC_GetPCLK2Freq+0x1c>)
 800341c:	689b      	ldr	r3, [r3, #8]
 800341e:	f3c3 23c2 	ubfx	r3, r3, #11, #3
 8003422:	5cd3      	ldrb	r3, [r2, r3]
 8003424:	4a04      	ldr	r2, [pc, #16]	@ (8003438 <HAL_RCC_GetPCLK2Freq+0x20>)
 8003426:	6810      	ldr	r0, [r2, #0]
 8003428:	f003 031f 	and.w	r3, r3, #31
 800342c:	40d8      	lsrs	r0, r3
 800342e:	4770      	bx	lr
 8003430:	40021000 	.word	0x40021000
 8003434:	08004bd8 	.word	0x08004bd8
 8003438:	20000010 	.word	0x20000010

0800343c <HAL_RCCEx_PeriphCLKConfig>:
 800343c:	e92d 41f3 	stmdb	sp!, {r0, r1, r4, r5, r6, r7, r8, lr}
 8003440:	4604      	mov	r4, r0
 8003442:	6800      	ldr	r0, [r0, #0]
 8003444:	f410 2000 	ands.w	r0, r0, #524288	@ 0x80000
 8003448:	d05a      	beq.n	8003500 <HAL_RCCEx_PeriphCLKConfig+0xc4>
 800344a:	4d25      	ldr	r5, [pc, #148]	@ (80034e0 <HAL_RCCEx_PeriphCLKConfig+0xa4>)
 800344c:	6dab      	ldr	r3, [r5, #88]	@ 0x58
 800344e:	00d8      	lsls	r0, r3, #3
 8003450:	d444      	bmi.n	80034dc <HAL_RCCEx_PeriphCLKConfig+0xa0>
 8003452:	6dab      	ldr	r3, [r5, #88]	@ 0x58
 8003454:	f043 5380 	orr.w	r3, r3, #268435456	@ 0x10000000
 8003458:	65ab      	str	r3, [r5, #88]	@ 0x58
 800345a:	6dab      	ldr	r3, [r5, #88]	@ 0x58
 800345c:	f003 5380 	and.w	r3, r3, #268435456	@ 0x10000000
 8003460:	9301      	str	r3, [sp, #4]
 8003462:	9b01      	ldr	r3, [sp, #4]
 8003464:	2601      	movs	r6, #1
 8003466:	4f1f      	ldr	r7, [pc, #124]	@ (80034e4 <HAL_RCCEx_PeriphCLKConfig+0xa8>)
 8003468:	683b      	ldr	r3, [r7, #0]
 800346a:	f443 7380 	orr.w	r3, r3, #256	@ 0x100
 800346e:	603b      	str	r3, [r7, #0]
 8003470:	f7fd ffc4 	bl	80013fc <HAL_GetTick>
 8003474:	4680      	mov	r8, r0
 8003476:	683b      	ldr	r3, [r7, #0]
 8003478:	05d9      	lsls	r1, r3, #23
 800347a:	d535      	bpl.n	80034e8 <HAL_RCCEx_PeriphCLKConfig+0xac>
 800347c:	f8d5 3090 	ldr.w	r3, [r5, #144]	@ 0x90
 8003480:	6d22      	ldr	r2, [r4, #80]	@ 0x50
 8003482:	f413 7340 	ands.w	r3, r3, #768	@ 0x300
 8003486:	d01f      	beq.n	80034c8 <HAL_RCCEx_PeriphCLKConfig+0x8c>
 8003488:	429a      	cmp	r2, r3
 800348a:	d01d      	beq.n	80034c8 <HAL_RCCEx_PeriphCLKConfig+0x8c>
 800348c:	f8d5 2090 	ldr.w	r2, [r5, #144]	@ 0x90
 8003490:	f8d5 3090 	ldr.w	r3, [r5, #144]	@ 0x90
 8003494:	f443 3380 	orr.w	r3, r3, #65536	@ 0x10000
 8003498:	f8c5 3090 	str.w	r3, [r5, #144]	@ 0x90
 800349c:	f8d5 3090 	ldr.w	r3, [r5, #144]	@ 0x90
 80034a0:	f422 7140 	bic.w	r1, r2, #768	@ 0x300
 80034a4:	f423 3380 	bic.w	r3, r3, #65536	@ 0x10000
 80034a8:	07d2      	lsls	r2, r2, #31
 80034aa:	f8c5 3090 	str.w	r3, [r5, #144]	@ 0x90
 80034ae:	f8c5 1090 	str.w	r1, [r5, #144]	@ 0x90
 80034b2:	d509      	bpl.n	80034c8 <HAL_RCCEx_PeriphCLKConfig+0x8c>
 80034b4:	f7fd ffa2 	bl	80013fc <HAL_GetTick>
 80034b8:	f241 3888 	movw	r8, #5000	@ 0x1388
 80034bc:	4607      	mov	r7, r0
 80034be:	f8d5 3090 	ldr.w	r3, [r5, #144]	@ 0x90
 80034c2:	079b      	lsls	r3, r3, #30
 80034c4:	f140 8129 	bpl.w	800371a <HAL_RCCEx_PeriphCLKConfig+0x2de>
 80034c8:	f8d5 3090 	ldr.w	r3, [r5, #144]	@ 0x90
 80034cc:	6d22      	ldr	r2, [r4, #80]	@ 0x50
 80034ce:	f423 7340 	bic.w	r3, r3, #768	@ 0x300
 80034d2:	4313      	orrs	r3, r2
 80034d4:	f8c5 3090 	str.w	r3, [r5, #144]	@ 0x90
 80034d8:	2000      	movs	r0, #0
 80034da:	e00c      	b.n	80034f6 <HAL_RCCEx_PeriphCLKConfig+0xba>
 80034dc:	2600      	movs	r6, #0
 80034de:	e7c2      	b.n	8003466 <HAL_RCCEx_PeriphCLKConfig+0x2a>
 80034e0:	40021000 	.word	0x40021000
 80034e4:	40007000 	.word	0x40007000
 80034e8:	f7fd ff88 	bl	80013fc <HAL_GetTick>
 80034ec:	eba0 0008 	sub.w	r0, r0, r8
 80034f0:	2802      	cmp	r0, #2
 80034f2:	d9c0      	bls.n	8003476 <HAL_RCCEx_PeriphCLKConfig+0x3a>
 80034f4:	2003      	movs	r0, #3
 80034f6:	b11e      	cbz	r6, 8003500 <HAL_RCCEx_PeriphCLKConfig+0xc4>
 80034f8:	6dab      	ldr	r3, [r5, #88]	@ 0x58
 80034fa:	f023 5380 	bic.w	r3, r3, #268435456	@ 0x10000000
 80034fe:	65ab      	str	r3, [r5, #88]	@ 0x58
 8003500:	6823      	ldr	r3, [r4, #0]
 8003502:	07dd      	lsls	r5, r3, #31
 8003504:	d508      	bpl.n	8003518 <HAL_RCCEx_PeriphCLKConfig+0xdc>
 8003506:	4988      	ldr	r1, [pc, #544]	@ (8003728 <HAL_RCCEx_PeriphCLKConfig+0x2ec>)
 8003508:	6865      	ldr	r5, [r4, #4]
 800350a:	f8d1 2088 	ldr.w	r2, [r1, #136]	@ 0x88
 800350e:	f022 0203 	bic.w	r2, r2, #3
 8003512:	432a      	orrs	r2, r5
 8003514:	f8c1 2088 	str.w	r2, [r1, #136]	@ 0x88
 8003518:	0799      	lsls	r1, r3, #30
 800351a:	d508      	bpl.n	800352e <HAL_RCCEx_PeriphCLKConfig+0xf2>
 800351c:	4982      	ldr	r1, [pc, #520]	@ (8003728 <HAL_RCCEx_PeriphCLKConfig+0x2ec>)
 800351e:	68a5      	ldr	r5, [r4, #8]
 8003520:	f8d1 2088 	ldr.w	r2, [r1, #136]	@ 0x88
 8003524:	f022 020c 	bic.w	r2, r2, #12
 8003528:	432a      	orrs	r2, r5
 800352a:	f8c1 2088 	str.w	r2, [r1, #136]	@ 0x88
 800352e:	075a      	lsls	r2, r3, #29
 8003530:	d508      	bpl.n	8003544 <HAL_RCCEx_PeriphCLKConfig+0x108>
 8003532:	497d      	ldr	r1, [pc, #500]	@ (8003728 <HAL_RCCEx_PeriphCLKConfig+0x2ec>)
 8003534:	68e5      	ldr	r5, [r4, #12]
 8003536:	f8d1 2088 	ldr.w	r2, [r1, #136]	@ 0x88
 800353a:	f022 0230 	bic.w	r2, r2, #48	@ 0x30
 800353e:	432a      	orrs	r2, r5
 8003540:	f8c1 2088 	str.w	r2, [r1, #136]	@ 0x88
 8003544:	071f      	lsls	r7, r3, #28
 8003546:	d508      	bpl.n	800355a <HAL_RCCEx_PeriphCLKConfig+0x11e>
 8003548:	4977      	ldr	r1, [pc, #476]	@ (8003728 <HAL_RCCEx_PeriphCLKConfig+0x2ec>)
 800354a:	6925      	ldr	r5, [r4, #16]
 800354c:	f8d1 2088 	ldr.w	r2, [r1, #136]	@ 0x88
 8003550:	f022 02c0 	bic.w	r2, r2, #192	@ 0xc0
 8003554:	432a      	orrs	r2, r5
 8003556:	f8c1 2088 	str.w	r2, [r1, #136]	@ 0x88
 800355a:	06de      	lsls	r6, r3, #27
 800355c:	d508      	bpl.n	8003570 <HAL_RCCEx_PeriphCLKConfig+0x134>
 800355e:	4972      	ldr	r1, [pc, #456]	@ (8003728 <HAL_RCCEx_PeriphCLKConfig+0x2ec>)
 8003560:	6965      	ldr	r5, [r4, #20]
 8003562:	f8d1 2088 	ldr.w	r2, [r1, #136]	@ 0x88
 8003566:	f422 7240 	bic.w	r2, r2, #768	@ 0x300
 800356a:	432a      	orrs	r2, r5
 800356c:	f8c1 2088 	str.w	r2, [r1, #136]	@ 0x88
 8003570:	069d      	lsls	r5, r3, #26
 8003572:	d508      	bpl.n	8003586 <HAL_RCCEx_PeriphCLKConfig+0x14a>
 8003574:	496c      	ldr	r1, [pc, #432]	@ (8003728 <HAL_RCCEx_PeriphCLKConfig+0x2ec>)
 8003576:	69a5      	ldr	r5, [r4, #24]
 8003578:	f8d1 2088 	ldr.w	r2, [r1, #136]	@ 0x88
 800357c:	f422 6240 	bic.w	r2, r2, #3072	@ 0xc00
 8003580:	432a      	orrs	r2, r5
 8003582:	f8c1 2088 	str.w	r2, [r1, #136]	@ 0x88
 8003586:	0659      	lsls	r1, r3, #25
 8003588:	d508      	bpl.n	800359c <HAL_RCCEx_PeriphCLKConfig+0x160>
 800358a:	4967      	ldr	r1, [pc, #412]	@ (8003728 <HAL_RCCEx_PeriphCLKConfig+0x2ec>)
 800358c:	69e5      	ldr	r5, [r4, #28]
 800358e:	f8d1 2088 	ldr.w	r2, [r1, #136]	@ 0x88
 8003592:	f422 5240 	bic.w	r2, r2, #12288	@ 0x3000
 8003596:	432a      	orrs	r2, r5
 8003598:	f8c1 2088 	str.w	r2, [r1, #136]	@ 0x88
 800359c:	061a      	lsls	r2, r3, #24
 800359e:	d508      	bpl.n	80035b2 <HAL_RCCEx_PeriphCLKConfig+0x176>
 80035a0:	4961      	ldr	r1, [pc, #388]	@ (8003728 <HAL_RCCEx_PeriphCLKConfig+0x2ec>)
 80035a2:	6a25      	ldr	r5, [r4, #32]
 80035a4:	f8d1 2088 	ldr.w	r2, [r1, #136]	@ 0x88
 80035a8:	f422 4240 	bic.w	r2, r2, #49152	@ 0xc000
 80035ac:	432a      	orrs	r2, r5
 80035ae:	f8c1 2088 	str.w	r2, [r1, #136]	@ 0x88
 80035b2:	05df      	lsls	r7, r3, #23
 80035b4:	d508      	bpl.n	80035c8 <HAL_RCCEx_PeriphCLKConfig+0x18c>
 80035b6:	495c      	ldr	r1, [pc, #368]	@ (8003728 <HAL_RCCEx_PeriphCLKConfig+0x2ec>)
 80035b8:	6a65      	ldr	r5, [r4, #36]	@ 0x24
 80035ba:	f8d1 2088 	ldr.w	r2, [r1, #136]	@ 0x88
 80035be:	f422 3240 	bic.w	r2, r2, #196608	@ 0x30000
 80035c2:	432a      	orrs	r2, r5
 80035c4:	f8c1 2088 	str.w	r2, [r1, #136]	@ 0x88
 80035c8:	039e      	lsls	r6, r3, #14
 80035ca:	d508      	bpl.n	80035de <HAL_RCCEx_PeriphCLKConfig+0x1a2>
 80035cc:	4956      	ldr	r1, [pc, #344]	@ (8003728 <HAL_RCCEx_PeriphCLKConfig+0x2ec>)
 80035ce:	6aa5      	ldr	r5, [r4, #40]	@ 0x28
 80035d0:	f8d1 209c 	ldr.w	r2, [r1, #156]	@ 0x9c
 80035d4:	f022 0203 	bic.w	r2, r2, #3
 80035d8:	432a      	orrs	r2, r5
 80035da:	f8c1 209c 	str.w	r2, [r1, #156]	@ 0x9c
 80035de:	059d      	lsls	r5, r3, #22
 80035e0:	d508      	bpl.n	80035f4 <HAL_RCCEx_PeriphCLKConfig+0x1b8>
 80035e2:	4951      	ldr	r1, [pc, #324]	@ (8003728 <HAL_RCCEx_PeriphCLKConfig+0x2ec>)
 80035e4:	6ae5      	ldr	r5, [r4, #44]	@ 0x2c
 80035e6:	f8d1 2088 	ldr.w	r2, [r1, #136]	@ 0x88
 80035ea:	f422 2240 	bic.w	r2, r2, #786432	@ 0xc0000
 80035ee:	432a      	orrs	r2, r5
 80035f0:	f8c1 2088 	str.w	r2, [r1, #136]	@ 0x88
 80035f4:	0559      	lsls	r1, r3, #21
 80035f6:	d50f      	bpl.n	8003618 <HAL_RCCEx_PeriphCLKConfig+0x1dc>
 80035f8:	494b      	ldr	r1, [pc, #300]	@ (8003728 <HAL_RCCEx_PeriphCLKConfig+0x2ec>)
 80035fa:	6b25      	ldr	r5, [r4, #48]	@ 0x30
 80035fc:	f8d1 2088 	ldr.w	r2, [r1, #136]	@ 0x88
 8003600:	f422 1240 	bic.w	r2, r2, #3145728	@ 0x300000
 8003604:	432a      	orrs	r2, r5
 8003606:	f8c1 2088 	str.w	r2, [r1, #136]	@ 0x88
 800360a:	f5b5 1f80 	cmp.w	r5, #1048576	@ 0x100000
 800360e:	bf02      	ittt	eq
 8003610:	68ca      	ldreq	r2, [r1, #12]
 8003612:	f442 1280 	orreq.w	r2, r2, #1048576	@ 0x100000
 8003616:	60ca      	streq	r2, [r1, #12]
 8003618:	051a      	lsls	r2, r3, #20
 800361a:	d50f      	bpl.n	800363c <HAL_RCCEx_PeriphCLKConfig+0x200>
 800361c:	4942      	ldr	r1, [pc, #264]	@ (8003728 <HAL_RCCEx_PeriphCLKConfig+0x2ec>)
 800361e:	6b65      	ldr	r5, [r4, #52]	@ 0x34
 8003620:	f8d1 2088 	ldr.w	r2, [r1, #136]	@ 0x88
 8003624:	f422 0240 	bic.w	r2, r2, #12582912	@ 0xc00000
 8003628:	432a      	orrs	r2, r5
 800362a:	f8c1 2088 	str.w	r2, [r1, #136]	@ 0x88
 800362e:	f5b5 0f80 	cmp.w	r5, #4194304	@ 0x400000
 8003632:	bf02      	ittt	eq
 8003634:	68ca      	ldreq	r2, [r1, #12]
 8003636:	f442 1280 	orreq.w	r2, r2, #1048576	@ 0x100000
 800363a:	60ca      	streq	r2, [r1, #12]
 800363c:	04df      	lsls	r7, r3, #19
 800363e:	d50f      	bpl.n	8003660 <HAL_RCCEx_PeriphCLKConfig+0x224>
 8003640:	4939      	ldr	r1, [pc, #228]	@ (8003728 <HAL_RCCEx_PeriphCLKConfig+0x2ec>)
 8003642:	6ba5      	ldr	r5, [r4, #56]	@ 0x38
 8003644:	f8d1 2088 	ldr.w	r2, [r1, #136]	@ 0x88
 8003648:	f022 7240 	bic.w	r2, r2, #50331648	@ 0x3000000
 800364c:	432a      	orrs	r2, r5
 800364e:	f8c1 2088 	str.w	r2, [r1, #136]	@ 0x88
 8003652:	f1b5 7f80 	cmp.w	r5, #16777216	@ 0x1000000
 8003656:	bf02      	ittt	eq
 8003658:	68ca      	ldreq	r2, [r1, #12]
 800365a:	f442 1280 	orreq.w	r2, r2, #1048576	@ 0x100000
 800365e:	60ca      	streq	r2, [r1, #12]
 8003660:	049e      	lsls	r6, r3, #18
 8003662:	d50f      	bpl.n	8003684 <HAL_RCCEx_PeriphCLKConfig+0x248>
 8003664:	4930      	ldr	r1, [pc, #192]	@ (8003728 <HAL_RCCEx_PeriphCLKConfig+0x2ec>)
 8003666:	6be5      	ldr	r5, [r4, #60]	@ 0x3c
 8003668:	f8d1 2088 	ldr.w	r2, [r1, #136]	@ 0x88
 800366c:	f022 6240 	bic.w	r2, r2, #201326592	@ 0xc000000
 8003670:	432a      	orrs	r2, r5
 8003672:	f8c1 2088 	str.w	r2, [r1, #136]	@ 0x88
 8003676:	f1b5 6f00 	cmp.w	r5, #134217728	@ 0x8000000
 800367a:	bf02      	ittt	eq
 800367c:	68ca      	ldreq	r2, [r1, #12]
 800367e:	f442 1280 	orreq.w	r2, r2, #1048576	@ 0x100000
 8003682:	60ca      	streq	r2, [r1, #12]
 8003684:	045d      	lsls	r5, r3, #17
 8003686:	d50f      	bpl.n	80036a8 <HAL_RCCEx_PeriphCLKConfig+0x26c>
 8003688:	4927      	ldr	r1, [pc, #156]	@ (8003728 <HAL_RCCEx_PeriphCLKConfig+0x2ec>)
 800368a:	6c25      	ldr	r5, [r4, #64]	@ 0x40
 800368c:	f8d1 2088 	ldr.w	r2, [r1, #136]	@ 0x88
 8003690:	f022 6240 	bic.w	r2, r2, #201326592	@ 0xc000000
 8003694:	432a      	orrs	r2, r5
 8003696:	f8c1 2088 	str.w	r2, [r1, #136]	@ 0x88
 800369a:	f1b5 6f00 	cmp.w	r5, #134217728	@ 0x8000000
 800369e:	bf02      	ittt	eq
 80036a0:	68ca      	ldreq	r2, [r1, #12]
 80036a2:	f442 1280 	orreq.w	r2, r2, #1048576	@ 0x100000
 80036a6:	60ca      	streq	r2, [r1, #12]
 80036a8:	0419      	lsls	r1, r3, #16
 80036aa:	d50f      	bpl.n	80036cc <HAL_RCCEx_PeriphCLKConfig+0x290>
 80036ac:	491e      	ldr	r1, [pc, #120]	@ (8003728 <HAL_RCCEx_PeriphCLKConfig+0x2ec>)
 80036ae:	6c65      	ldr	r5, [r4, #68]	@ 0x44
 80036b0:	f8d1 2088 	ldr.w	r2, [r1, #136]	@ 0x88
 80036b4:	f022 5240 	bic.w	r2, r2, #805306368	@ 0x30000000
 80036b8:	432a      	orrs	r2, r5
 80036ba:	f8c1 2088 	str.w	r2, [r1, #136]	@ 0x88
 80036be:	f1b5 5f80 	cmp.w	r5, #268435456	@ 0x10000000
 80036c2:	bf02      	ittt	eq
 80036c4:	68ca      	ldreq	r2, [r1, #12]
 80036c6:	f442 3280 	orreq.w	r2, r2, #65536	@ 0x10000
 80036ca:	60ca      	streq	r2, [r1, #12]
 80036cc:	03da      	lsls	r2, r3, #15
 80036ce:	d50f      	bpl.n	80036f0 <HAL_RCCEx_PeriphCLKConfig+0x2b4>
 80036d0:	4915      	ldr	r1, [pc, #84]	@ (8003728 <HAL_RCCEx_PeriphCLKConfig+0x2ec>)
 80036d2:	6ca5      	ldr	r5, [r4, #72]	@ 0x48
 80036d4:	f8d1 2088 	ldr.w	r2, [r1, #136]	@ 0x88
 80036d8:	f022 4240 	bic.w	r2, r2, #3221225472	@ 0xc0000000
 80036dc:	432a      	orrs	r2, r5
 80036de:	f8c1 2088 	str.w	r2, [r1, #136]	@ 0x88
 80036e2:	f1b5 4f80 	cmp.w	r5, #1073741824	@ 0x40000000
 80036e6:	bf02      	ittt	eq
 80036e8:	68ca      	ldreq	r2, [r1, #12]
 80036ea:	f442 3280 	orreq.w	r2, r2, #65536	@ 0x10000
 80036ee:	60ca      	streq	r2, [r1, #12]
 80036f0:	035b      	lsls	r3, r3, #13
 80036f2:	d50f      	bpl.n	8003714 <HAL_RCCEx_PeriphCLKConfig+0x2d8>
 80036f4:	4a0c      	ldr	r2, [pc, #48]	@ (8003728 <HAL_RCCEx_PeriphCLKConfig+0x2ec>)
 80036f6:	6ce1      	ldr	r1, [r4, #76]	@ 0x4c
 80036f8:	f8d2 309c 	ldr.w	r3, [r2, #156]	@ 0x9c
 80036fc:	f423 1340 	bic.w	r3, r3, #3145728	@ 0x300000
 8003700:	430b      	orrs	r3, r1
 8003702:	f5b1 1f00 	cmp.w	r1, #2097152	@ 0x200000
 8003706:	f8c2 309c 	str.w	r3, [r2, #156]	@ 0x9c
 800370a:	d103      	bne.n	8003714 <HAL_RCCEx_PeriphCLKConfig+0x2d8>
 800370c:	68d3      	ldr	r3, [r2, #12]
 800370e:	f443 1380 	orr.w	r3, r3, #1048576	@ 0x100000
 8003712:	60d3      	str	r3, [r2, #12]
 8003714:	b002      	add	sp, #8
 8003716:	e8bd 81f0 	ldmia.w	sp!, {r4, r5, r6, r7, r8, pc}
 800371a:	f7fd fe6f 	bl	80013fc <HAL_GetTick>
 800371e:	1bc0      	subs	r0, r0, r7
 8003720:	4540      	cmp	r0, r8
 8003722:	f67f aecc 	bls.w	80034be <HAL_RCCEx_PeriphCLKConfig+0x82>
 8003726:	e6e5      	b.n	80034f4 <HAL_RCCEx_PeriphCLKConfig+0xb8>
 8003728:	40021000 	.word	0x40021000

0800372c <TIM_OC1_SetConfig>:
 800372c:	6a03      	ldr	r3, [r0, #32]
 800372e:	6a02      	ldr	r2, [r0, #32]
 8003730:	f022 0201 	bic.w	r2, r2, #1
 8003734:	b570      	push	{r4, r5, r6, lr}
 8003736:	6202      	str	r2, [r0, #32]
 8003738:	6844      	ldr	r4, [r0, #4]
 800373a:	6982      	ldr	r2, [r0, #24]
 800373c:	680d      	ldr	r5, [r1, #0]
 800373e:	f422 3280 	bic.w	r2, r2, #65536	@ 0x10000
 8003742:	f022 0273 	bic.w	r2, r2, #115	@ 0x73
 8003746:	432a      	orrs	r2, r5
 8003748:	688d      	ldr	r5, [r1, #8]
 800374a:	f023 0302 	bic.w	r3, r3, #2
 800374e:	432b      	orrs	r3, r5
 8003750:	4d14      	ldr	r5, [pc, #80]	@ (80037a4 <TIM_OC1_SetConfig+0x78>)
 8003752:	42a8      	cmp	r0, r5
 8003754:	d013      	beq.n	800377e <TIM_OC1_SetConfig+0x52>
 8003756:	f505 6500 	add.w	r5, r5, #2048	@ 0x800
 800375a:	42a8      	cmp	r0, r5
 800375c:	d00f      	beq.n	800377e <TIM_OC1_SetConfig+0x52>
 800375e:	f505 6540 	add.w	r5, r5, #3072	@ 0xc00
 8003762:	42a8      	cmp	r0, r5
 8003764:	d00b      	beq.n	800377e <TIM_OC1_SetConfig+0x52>
 8003766:	f505 6580 	add.w	r5, r5, #1024	@ 0x400
 800376a:	42a8      	cmp	r0, r5
 800376c:	d007      	beq.n	800377e <TIM_OC1_SetConfig+0x52>
 800376e:	f505 6580 	add.w	r5, r5, #1024	@ 0x400
 8003772:	42a8      	cmp	r0, r5
 8003774:	d003      	beq.n	800377e <TIM_OC1_SetConfig+0x52>
 8003776:	f505 6500 	add.w	r5, r5, #2048	@ 0x800
 800377a:	42a8      	cmp	r0, r5
 800377c:	d10b      	bne.n	8003796 <TIM_OC1_SetConfig+0x6a>
 800377e:	68cd      	ldr	r5, [r1, #12]
 8003780:	f023 0308 	bic.w	r3, r3, #8
 8003784:	432b      	orrs	r3, r5
 8003786:	f424 7540 	bic.w	r5, r4, #768	@ 0x300
 800378a:	e9d1 4605 	ldrd	r4, r6, [r1, #20]
 800378e:	4334      	orrs	r4, r6
 8003790:	f023 0304 	bic.w	r3, r3, #4
 8003794:	432c      	orrs	r4, r5
 8003796:	6044      	str	r4, [r0, #4]
 8003798:	6182      	str	r2, [r0, #24]
 800379a:	684a      	ldr	r2, [r1, #4]
 800379c:	6342      	str	r2, [r0, #52]	@ 0x34
 800379e:	6203      	str	r3, [r0, #32]
 80037a0:	bd70      	pop	{r4, r5, r6, pc}
 80037a2:	bf00      	nop
 80037a4:	40012c00 	.word	0x40012c00

080037a8 <TIM_OC3_SetConfig>:
 80037a8:	6a03      	ldr	r3, [r0, #32]
 80037aa:	6a02      	ldr	r2, [r0, #32]
 80037ac:	f422 7280 	bic.w	r2, r2, #256	@ 0x100
 80037b0:	b570      	push	{r4, r5, r6, lr}
 80037b2:	6202      	str	r2, [r0, #32]
 80037b4:	6844      	ldr	r4, [r0, #4]
 80037b6:	69c2      	ldr	r2, [r0, #28]
 80037b8:	680d      	ldr	r5, [r1, #0]
 80037ba:	f422 3280 	bic.w	r2, r2, #65536	@ 0x10000
 80037be:	f022 0273 	bic.w	r2, r2, #115	@ 0x73
 80037c2:	432a      	orrs	r2, r5
 80037c4:	688d      	ldr	r5, [r1, #8]
 80037c6:	f423 7300 	bic.w	r3, r3, #512	@ 0x200
 80037ca:	ea43 2305 	orr.w	r3, r3, r5, lsl #8
 80037ce:	4d15      	ldr	r5, [pc, #84]	@ (8003824 <TIM_OC3_SetConfig+0x7c>)
 80037d0:	42a8      	cmp	r0, r5
 80037d2:	d007      	beq.n	80037e4 <TIM_OC3_SetConfig+0x3c>
 80037d4:	f505 6500 	add.w	r5, r5, #2048	@ 0x800
 80037d8:	42a8      	cmp	r0, r5
 80037da:	d003      	beq.n	80037e4 <TIM_OC3_SetConfig+0x3c>
 80037dc:	f505 55e0 	add.w	r5, r5, #7168	@ 0x1c00
 80037e0:	42a8      	cmp	r0, r5
 80037e2:	d10e      	bne.n	8003802 <TIM_OC3_SetConfig+0x5a>
 80037e4:	68cd      	ldr	r5, [r1, #12]
 80037e6:	f423 6300 	bic.w	r3, r3, #2048	@ 0x800
 80037ea:	ea43 2305 	orr.w	r3, r3, r5, lsl #8
 80037ee:	f423 6380 	bic.w	r3, r3, #1024	@ 0x400
 80037f2:	f424 5540 	bic.w	r5, r4, #12288	@ 0x3000
 80037f6:	e9d1 4605 	ldrd	r4, r6, [r1, #20]
 80037fa:	4334      	orrs	r4, r6
 80037fc:	ea45 1404 	orr.w	r4, r5, r4, lsl #4
 8003800:	e009      	b.n	8003816 <TIM_OC3_SetConfig+0x6e>
 8003802:	4d09      	ldr	r5, [pc, #36]	@ (8003828 <TIM_OC3_SetConfig+0x80>)
 8003804:	42a8      	cmp	r0, r5
 8003806:	d0f4      	beq.n	80037f2 <TIM_OC3_SetConfig+0x4a>
 8003808:	4d08      	ldr	r5, [pc, #32]	@ (800382c <TIM_OC3_SetConfig+0x84>)
 800380a:	42a8      	cmp	r0, r5
 800380c:	d0f1      	beq.n	80037f2 <TIM_OC3_SetConfig+0x4a>
 800380e:	f505 6580 	add.w	r5, r5, #1024	@ 0x400
 8003812:	42a8      	cmp	r0, r5
 8003814:	d0ed      	beq.n	80037f2 <TIM_OC3_SetConfig+0x4a>
 8003816:	6044      	str	r4, [r0, #4]
 8003818:	61c2      	str	r2, [r0, #28]
 800381a:	684a      	ldr	r2, [r1, #4]
 800381c:	63c2      	str	r2, [r0, #60]	@ 0x3c
 800381e:	6203      	str	r3, [r0, #32]
 8003820:	bd70      	pop	{r4, r5, r6, pc}
 8003822:	bf00      	nop
 8003824:	40012c00 	.word	0x40012c00
 8003828:	40014000 	.word	0x40014000
 800382c:	40014400 	.word	0x40014400

08003830 <TIM_OC4_SetConfig>:
 8003830:	6a03      	ldr	r3, [r0, #32]
 8003832:	6a02      	ldr	r2, [r0, #32]
 8003834:	f422 5280 	bic.w	r2, r2, #4096	@ 0x1000
 8003838:	b570      	push	{r4, r5, r6, lr}
 800383a:	6202      	str	r2, [r0, #32]
 800383c:	6844      	ldr	r4, [r0, #4]
 800383e:	69c2      	ldr	r2, [r0, #28]
 8003840:	680d      	ldr	r5, [r1, #0]
 8003842:	f022 7280 	bic.w	r2, r2, #16777216	@ 0x1000000
 8003846:	f422 42e6 	bic.w	r2, r2, #29440	@ 0x7300
 800384a:	ea42 2205 	orr.w	r2, r2, r5, lsl #8
 800384e:	688d      	ldr	r5, [r1, #8]
 8003850:	f423 5300 	bic.w	r3, r3, #8192	@ 0x2000
 8003854:	ea43 3305 	orr.w	r3, r3, r5, lsl #12
 8003858:	4d14      	ldr	r5, [pc, #80]	@ (80038ac <TIM_OC4_SetConfig+0x7c>)
 800385a:	42a8      	cmp	r0, r5
 800385c:	d007      	beq.n	800386e <TIM_OC4_SetConfig+0x3e>
 800385e:	f505 6500 	add.w	r5, r5, #2048	@ 0x800
 8003862:	42a8      	cmp	r0, r5
 8003864:	d003      	beq.n	800386e <TIM_OC4_SetConfig+0x3e>
 8003866:	f505 55e0 	add.w	r5, r5, #7168	@ 0x1c00
 800386a:	42a8      	cmp	r0, r5
 800386c:	d10e      	bne.n	800388c <TIM_OC4_SetConfig+0x5c>
 800386e:	68cd      	ldr	r5, [r1, #12]
 8003870:	f423 4300 	bic.w	r3, r3, #32768	@ 0x8000
 8003874:	ea43 3305 	orr.w	r3, r3, r5, lsl #12
 8003878:	f423 4380 	bic.w	r3, r3, #16384	@ 0x4000
 800387c:	f424 4540 	bic.w	r5, r4, #49152	@ 0xc000
 8003880:	e9d1 4605 	ldrd	r4, r6, [r1, #20]
 8003884:	4334      	orrs	r4, r6
 8003886:	ea45 1484 	orr.w	r4, r5, r4, lsl #6
 800388a:	e009      	b.n	80038a0 <TIM_OC4_SetConfig+0x70>
 800388c:	4d08      	ldr	r5, [pc, #32]	@ (80038b0 <TIM_OC4_SetConfig+0x80>)
 800388e:	42a8      	cmp	r0, r5
 8003890:	d0f4      	beq.n	800387c <TIM_OC4_SetConfig+0x4c>
 8003892:	4d08      	ldr	r5, [pc, #32]	@ (80038b4 <TIM_OC4_SetConfig+0x84>)
 8003894:	42a8      	cmp	r0, r5
 8003896:	d0f1      	beq.n	800387c <TIM_OC4_SetConfig+0x4c>
 8003898:	f505 6580 	add.w	r5, r5, #1024	@ 0x400
 800389c:	42a8      	cmp	r0, r5
 800389e:	d0ed      	beq.n	800387c <TIM_OC4_SetConfig+0x4c>
 80038a0:	6044      	str	r4, [r0, #4]
 80038a2:	61c2      	str	r2, [r0, #28]
 80038a4:	684a      	ldr	r2, [r1, #4]
 80038a6:	6402      	str	r2, [r0, #64]	@ 0x40
 80038a8:	6203      	str	r3, [r0, #32]
 80038aa:	bd70      	pop	{r4, r5, r6, pc}
 80038ac:	40012c00 	.word	0x40012c00
 80038b0:	40014000 	.word	0x40014000
 80038b4:	40014400 	.word	0x40014400

080038b8 <TIM_OC5_SetConfig>:
 80038b8:	6a03      	ldr	r3, [r0, #32]
 80038ba:	6a02      	ldr	r2, [r0, #32]
 80038bc:	f422 3280 	bic.w	r2, r2, #65536	@ 0x10000
 80038c0:	b530      	push	{r4, r5, lr}
 80038c2:	6202      	str	r2, [r0, #32]
 80038c4:	6844      	ldr	r4, [r0, #4]
 80038c6:	6d02      	ldr	r2, [r0, #80]	@ 0x50
 80038c8:	680d      	ldr	r5, [r1, #0]
 80038ca:	f422 3280 	bic.w	r2, r2, #65536	@ 0x10000
 80038ce:	f022 0270 	bic.w	r2, r2, #112	@ 0x70
 80038d2:	432a      	orrs	r2, r5
 80038d4:	688d      	ldr	r5, [r1, #8]
 80038d6:	f423 3300 	bic.w	r3, r3, #131072	@ 0x20000
 80038da:	ea43 4305 	orr.w	r3, r3, r5, lsl #16
 80038de:	4d11      	ldr	r5, [pc, #68]	@ (8003924 <TIM_OC5_SetConfig+0x6c>)
 80038e0:	42a8      	cmp	r0, r5
 80038e2:	d013      	beq.n	800390c <TIM_OC5_SetConfig+0x54>
 80038e4:	f505 6500 	add.w	r5, r5, #2048	@ 0x800
 80038e8:	42a8      	cmp	r0, r5
 80038ea:	d00f      	beq.n	800390c <TIM_OC5_SetConfig+0x54>
 80038ec:	f505 6540 	add.w	r5, r5, #3072	@ 0xc00
 80038f0:	42a8      	cmp	r0, r5
 80038f2:	d00b      	beq.n	800390c <TIM_OC5_SetConfig+0x54>
 80038f4:	f505 6580 	add.w	r5, r5, #1024	@ 0x400
 80038f8:	42a8      	cmp	r0, r5
 80038fa:	d007      	beq.n	800390c <TIM_OC5_SetConfig+0x54>
 80038fc:	f505 6580 	add.w	r5, r5, #1024	@ 0x400
 8003900:	42a8      	cmp	r0, r5
 8003902:	d003      	beq.n	800390c <TIM_OC5_SetConfig+0x54>
 8003904:	f505 6500 	add.w	r5, r5, #2048	@ 0x800
 8003908:	42a8      	cmp	r0, r5
 800390a:	d104      	bne.n	8003916 <TIM_OC5_SetConfig+0x5e>
 800390c:	694d      	ldr	r5, [r1, #20]
 800390e:	f424 3480 	bic.w	r4, r4, #65536	@ 0x10000
 8003912:	ea44 2405 	orr.w	r4, r4, r5, lsl #8
 8003916:	6044      	str	r4, [r0, #4]
 8003918:	6502      	str	r2, [r0, #80]	@ 0x50
 800391a:	684a      	ldr	r2, [r1, #4]
 800391c:	6482      	str	r2, [r0, #72]	@ 0x48
 800391e:	6203      	str	r3, [r0, #32]
 8003920:	bd30      	pop	{r4, r5, pc}
 8003922:	bf00      	nop
 8003924:	40012c00 	.word	0x40012c00

08003928 <TIM_OC6_SetConfig>:
 8003928:	6a03      	ldr	r3, [r0, #32]
 800392a:	6a02      	ldr	r2, [r0, #32]
 800392c:	f422 1280 	bic.w	r2, r2, #1048576	@ 0x100000
 8003930:	b530      	push	{r4, r5, lr}
 8003932:	6202      	str	r2, [r0, #32]
 8003934:	6844      	ldr	r4, [r0, #4]
 8003936:	6d02      	ldr	r2, [r0, #80]	@ 0x50
 8003938:	680d      	ldr	r5, [r1, #0]
 800393a:	f022 7280 	bic.w	r2, r2, #16777216	@ 0x1000000
 800393e:	f422 42e0 	bic.w	r2, r2, #28672	@ 0x7000
 8003942:	ea42 2205 	orr.w	r2, r2, r5, lsl #8
 8003946:	688d      	ldr	r5, [r1, #8]
 8003948:	f423 1300 	bic.w	r3, r3, #2097152	@ 0x200000
 800394c:	ea43 5305 	orr.w	r3, r3, r5, lsl #20
 8003950:	4d10      	ldr	r5, [pc, #64]	@ (8003994 <TIM_OC6_SetConfig+0x6c>)
 8003952:	42a8      	cmp	r0, r5
 8003954:	d013      	beq.n	800397e <TIM_OC6_SetConfig+0x56>
 8003956:	f505 6500 	add.w	r5, r5, #2048	@ 0x800
 800395a:	42a8      	cmp	r0, r5
 800395c:	d00f      	beq.n	800397e <TIM_OC6_SetConfig+0x56>
 800395e:	f505 6540 	add.w	r5, r5, #3072	@ 0xc00
 8003962:	42a8      	cmp	r0, r5
 8003964:	d00b      	beq.n	800397e <TIM_OC6_SetConfig+0x56>
 8003966:	f505 6580 	add.w	r5, r5, #1024	@ 0x400
 800396a:	42a8      	cmp	r0, r5
 800396c:	d007      	beq.n	800397e <TIM_OC6_SetConfig+0x56>
 800396e:	f505 6580 	add.w	r5, r5, #1024	@ 0x400
 8003972:	42a8      	cmp	r0, r5
 8003974:	d003      	beq.n	800397e <TIM_OC6_SetConfig+0x56>
 8003976:	f505 6500 	add.w	r5, r5, #2048	@ 0x800
 800397a:	42a8      	cmp	r0, r5
 800397c:	d104      	bne.n	8003988 <TIM_OC6_SetConfig+0x60>
 800397e:	694d      	ldr	r5, [r1, #20]
 8003980:	f424 2480 	bic.w	r4, r4, #262144	@ 0x40000
 8003984:	ea44 2485 	orr.w	r4, r4, r5, lsl #10
 8003988:	6044      	str	r4, [r0, #4]
 800398a:	6502      	str	r2, [r0, #80]	@ 0x50
 800398c:	684a      	ldr	r2, [r1, #4]
 800398e:	64c2      	str	r2, [r0, #76]	@ 0x4c
 8003990:	6203      	str	r3, [r0, #32]
 8003992:	bd30      	pop	{r4, r5, pc}
 8003994:	40012c00 	.word	0x40012c00

08003998 <HAL_TIM_Base_Start_IT>:
 8003998:	f890 303d 	ldrb.w	r3, [r0, #61]	@ 0x3d
 800399c:	2b01      	cmp	r3, #1
 800399e:	d133      	bne.n	8003a08 <HAL_TIM_Base_Start_IT+0x70>
 80039a0:	2302      	movs	r3, #2
 80039a2:	f880 303d 	strb.w	r3, [r0, #61]	@ 0x3d
 80039a6:	6803      	ldr	r3, [r0, #0]
 80039a8:	68da      	ldr	r2, [r3, #12]
 80039aa:	f042 0201 	orr.w	r2, r2, #1
 80039ae:	60da      	str	r2, [r3, #12]
 80039b0:	4a16      	ldr	r2, [pc, #88]	@ (8003a0c <HAL_TIM_Base_Start_IT+0x74>)
 80039b2:	4293      	cmp	r3, r2
 80039b4:	d01a      	beq.n	80039ec <HAL_TIM_Base_Start_IT+0x54>
 80039b6:	f1b3 4f80 	cmp.w	r3, #1073741824	@ 0x40000000
 80039ba:	d017      	beq.n	80039ec <HAL_TIM_Base_Start_IT+0x54>
 80039bc:	f5a2 3294 	sub.w	r2, r2, #75776	@ 0x12800
 80039c0:	4293      	cmp	r3, r2
 80039c2:	d013      	beq.n	80039ec <HAL_TIM_Base_Start_IT+0x54>
 80039c4:	f502 6280 	add.w	r2, r2, #1024	@ 0x400
 80039c8:	4293      	cmp	r3, r2
 80039ca:	d00f      	beq.n	80039ec <HAL_TIM_Base_Start_IT+0x54>
 80039cc:	f502 6280 	add.w	r2, r2, #1024	@ 0x400
 80039d0:	4293      	cmp	r3, r2
 80039d2:	d00b      	beq.n	80039ec <HAL_TIM_Base_Start_IT+0x54>
 80039d4:	f502 3294 	add.w	r2, r2, #75776	@ 0x12800
 80039d8:	4293      	cmp	r3, r2
 80039da:	d007      	beq.n	80039ec <HAL_TIM_Base_Start_IT+0x54>
 80039dc:	f502 6240 	add.w	r2, r2, #3072	@ 0xc00
 80039e0:	4293      	cmp	r3, r2
 80039e2:	d003      	beq.n	80039ec <HAL_TIM_Base_Start_IT+0x54>
 80039e4:	f502 5280 	add.w	r2, r2, #4096	@ 0x1000
 80039e8:	4293      	cmp	r3, r2
 80039ea:	d107      	bne.n	80039fc <HAL_TIM_Base_Start_IT+0x64>
 80039ec:	6899      	ldr	r1, [r3, #8]
 80039ee:	4a08      	ldr	r2, [pc, #32]	@ (8003a10 <HAL_TIM_Base_Start_IT+0x78>)
 80039f0:	400a      	ands	r2, r1
 80039f2:	2a06      	cmp	r2, #6
 80039f4:	d006      	beq.n	8003a04 <HAL_TIM_Base_Start_IT+0x6c>
 80039f6:	f5b2 3f80 	cmp.w	r2, #65536	@ 0x10000
 80039fa:	d003      	beq.n	8003a04 <HAL_TIM_Base_Start_IT+0x6c>
 80039fc:	681a      	ldr	r2, [r3, #0]
 80039fe:	f042 0201 	orr.w	r2, r2, #1
 8003a02:	601a      	str	r2, [r3, #0]
 8003a04:	2000      	movs	r0, #0
 8003a06:	4770      	bx	lr
 8003a08:	2001      	movs	r0, #1
 8003a0a:	4770      	bx	lr
 8003a0c:	40012c00 	.word	0x40012c00
 8003a10:	00010007 	.word	0x00010007

08003a14 <HAL_TIM_OC_MspInit>:
 8003a14:	4770      	bx	lr

08003a16 <HAL_TIM_IC_CaptureCallback>:
 8003a16:	4770      	bx	lr

08003a18 <HAL_TIM_PWM_PulseFinishedCallback>:
 8003a18:	4770      	bx	lr

08003a1a <HAL_TIM_TriggerCallback>:
 8003a1a:	4770      	bx	lr

08003a1c <HAL_TIM_IRQHandler>:
 8003a1c:	6803      	ldr	r3, [r0, #0]
 8003a1e:	b570      	push	{r4, r5, r6, lr}
 8003a20:	68dd      	ldr	r5, [r3, #12]
 8003a22:	691e      	ldr	r6, [r3, #16]
 8003a24:	07b2      	lsls	r2, r6, #30
 8003a26:	4604      	mov	r4, r0
 8003a28:	d50e      	bpl.n	8003a48 <HAL_TIM_IRQHandler+0x2c>
 8003a2a:	07a9      	lsls	r1, r5, #30
 8003a2c:	d50c      	bpl.n	8003a48 <HAL_TIM_IRQHandler+0x2c>
 8003a2e:	f06f 0202 	mvn.w	r2, #2
 8003a32:	611a      	str	r2, [r3, #16]
 8003a34:	2201      	movs	r2, #1
 8003a36:	7702      	strb	r2, [r0, #28]
 8003a38:	699b      	ldr	r3, [r3, #24]
 8003a3a:	079a      	lsls	r2, r3, #30
 8003a3c:	f000 80a4 	beq.w	8003b88 <HAL_TIM_IRQHandler+0x16c>
 8003a40:	f7ff ffe9 	bl	8003a16 <HAL_TIM_IC_CaptureCallback>
 8003a44:	2300      	movs	r3, #0
 8003a46:	7723      	strb	r3, [r4, #28]
 8003a48:	0773      	lsls	r3, r6, #29
 8003a4a:	d511      	bpl.n	8003a70 <HAL_TIM_IRQHandler+0x54>
 8003a4c:	0768      	lsls	r0, r5, #29
 8003a4e:	d50f      	bpl.n	8003a70 <HAL_TIM_IRQHandler+0x54>
 8003a50:	6823      	ldr	r3, [r4, #0]
 8003a52:	f06f 0204 	mvn.w	r2, #4
 8003a56:	611a      	str	r2, [r3, #16]
 8003a58:	2202      	movs	r2, #2
 8003a5a:	7722      	strb	r2, [r4, #28]
 8003a5c:	699b      	ldr	r3, [r3, #24]
 8003a5e:	f413 7f40 	tst.w	r3, #768	@ 0x300
 8003a62:	4620      	mov	r0, r4
 8003a64:	f000 8096 	beq.w	8003b94 <HAL_TIM_IRQHandler+0x178>
 8003a68:	f7ff ffd5 	bl	8003a16 <HAL_TIM_IC_CaptureCallback>
 8003a6c:	2300      	movs	r3, #0
 8003a6e:	7723      	strb	r3, [r4, #28]
 8003a70:	0731      	lsls	r1, r6, #28
 8003a72:	d510      	bpl.n	8003a96 <HAL_TIM_IRQHandler+0x7a>
 8003a74:	072a      	lsls	r2, r5, #28
 8003a76:	d50e      	bpl.n	8003a96 <HAL_TIM_IRQHandler+0x7a>
 8003a78:	6823      	ldr	r3, [r4, #0]
 8003a7a:	f06f 0208 	mvn.w	r2, #8
 8003a7e:	611a      	str	r2, [r3, #16]
 8003a80:	2204      	movs	r2, #4
 8003a82:	7722      	strb	r2, [r4, #28]
 8003a84:	69db      	ldr	r3, [r3, #28]
 8003a86:	079b      	lsls	r3, r3, #30
 8003a88:	4620      	mov	r0, r4
 8003a8a:	f000 8089 	beq.w	8003ba0 <HAL_TIM_IRQHandler+0x184>
 8003a8e:	f7ff ffc2 	bl	8003a16 <HAL_TIM_IC_CaptureCallback>
 8003a92:	2300      	movs	r3, #0
 8003a94:	7723      	strb	r3, [r4, #28]
 8003a96:	06f1      	lsls	r1, r6, #27
 8003a98:	d510      	bpl.n	8003abc <HAL_TIM_IRQHandler+0xa0>
 8003a9a:	06ea      	lsls	r2, r5, #27
 8003a9c:	d50e      	bpl.n	8003abc <HAL_TIM_IRQHandler+0xa0>
 8003a9e:	6823      	ldr	r3, [r4, #0]
 8003aa0:	f06f 0210 	mvn.w	r2, #16
 8003aa4:	611a      	str	r2, [r3, #16]
 8003aa6:	2208      	movs	r2, #8
 8003aa8:	7722      	strb	r2, [r4, #28]
 8003aaa:	69db      	ldr	r3, [r3, #28]
 8003aac:	f413 7f40 	tst.w	r3, #768	@ 0x300
 8003ab0:	4620      	mov	r0, r4
 8003ab2:	d07b      	beq.n	8003bac <HAL_TIM_IRQHandler+0x190>
 8003ab4:	f7ff ffaf 	bl	8003a16 <HAL_TIM_IC_CaptureCallback>
 8003ab8:	2300      	movs	r3, #0
 8003aba:	7723      	strb	r3, [r4, #28]
 8003abc:	07f3      	lsls	r3, r6, #31
 8003abe:	d508      	bpl.n	8003ad2 <HAL_TIM_IRQHandler+0xb6>
 8003ac0:	07e8      	lsls	r0, r5, #31
 8003ac2:	d506      	bpl.n	8003ad2 <HAL_TIM_IRQHandler+0xb6>
 8003ac4:	6823      	ldr	r3, [r4, #0]
 8003ac6:	f06f 0201 	mvn.w	r2, #1
 8003aca:	611a      	str	r2, [r3, #16]
 8003acc:	4620      	mov	r0, r4
 8003ace:	f7fc feab 	bl	8000828 <HAL_TIM_PeriodElapsedCallback>
 8003ad2:	f416 5f02 	tst.w	r6, #8320	@ 0x2080
 8003ad6:	d008      	beq.n	8003aea <HAL_TIM_IRQHandler+0xce>
 8003ad8:	0629      	lsls	r1, r5, #24
 8003ada:	d506      	bpl.n	8003aea <HAL_TIM_IRQHandler+0xce>
 8003adc:	6823      	ldr	r3, [r4, #0]
 8003ade:	f46f 5202 	mvn.w	r2, #8320	@ 0x2080
 8003ae2:	611a      	str	r2, [r3, #16]
 8003ae4:	4620      	mov	r0, r4
 8003ae6:	f000 fd36 	bl	8004556 <HAL_TIMEx_BreakCallback>
 8003aea:	05f2      	lsls	r2, r6, #23
 8003aec:	d508      	bpl.n	8003b00 <HAL_TIM_IRQHandler+0xe4>
 8003aee:	062b      	lsls	r3, r5, #24
 8003af0:	d506      	bpl.n	8003b00 <HAL_TIM_IRQHandler+0xe4>
 8003af2:	6823      	ldr	r3, [r4, #0]
 8003af4:	f46f 7280 	mvn.w	r2, #256	@ 0x100
 8003af8:	611a      	str	r2, [r3, #16]
 8003afa:	4620      	mov	r0, r4
 8003afc:	f000 fd2c 	bl	8004558 <HAL_TIMEx_Break2Callback>
 8003b00:	0670      	lsls	r0, r6, #25
 8003b02:	d508      	bpl.n	8003b16 <HAL_TIM_IRQHandler+0xfa>
 8003b04:	0669      	lsls	r1, r5, #25
 8003b06:	d506      	bpl.n	8003b16 <HAL_TIM_IRQHandler+0xfa>
 8003b08:	6823      	ldr	r3, [r4, #0]
 8003b0a:	f06f 0240 	mvn.w	r2, #64	@ 0x40
 8003b0e:	611a      	str	r2, [r3, #16]
 8003b10:	4620      	mov	r0, r4
 8003b12:	f7ff ff82 	bl	8003a1a <HAL_TIM_TriggerCallback>
 8003b16:	06b2      	lsls	r2, r6, #26
 8003b18:	d508      	bpl.n	8003b2c <HAL_TIM_IRQHandler+0x110>
 8003b1a:	06ab      	lsls	r3, r5, #26
 8003b1c:	d506      	bpl.n	8003b2c <HAL_TIM_IRQHandler+0x110>
 8003b1e:	6823      	ldr	r3, [r4, #0]
 8003b20:	f06f 0220 	mvn.w	r2, #32
 8003b24:	611a      	str	r2, [r3, #16]
 8003b26:	4620      	mov	r0, r4
 8003b28:	f000 fd14 	bl	8004554 <HAL_TIMEx_CommutCallback>
 8003b2c:	02f0      	lsls	r0, r6, #11
 8003b2e:	d508      	bpl.n	8003b42 <HAL_TIM_IRQHandler+0x126>
 8003b30:	02e9      	lsls	r1, r5, #11
 8003b32:	d506      	bpl.n	8003b42 <HAL_TIM_IRQHandler+0x126>
 8003b34:	6823      	ldr	r3, [r4, #0]
 8003b36:	f46f 1280 	mvn.w	r2, #1048576	@ 0x100000
 8003b3a:	611a      	str	r2, [r3, #16]
 8003b3c:	4620      	mov	r0, r4
 8003b3e:	f000 fd0c 	bl	800455a <HAL_TIMEx_EncoderIndexCallback>
 8003b42:	02b2      	lsls	r2, r6, #10
 8003b44:	d508      	bpl.n	8003b58 <HAL_TIM_IRQHandler+0x13c>
 8003b46:	02ab      	lsls	r3, r5, #10
 8003b48:	d506      	bpl.n	8003b58 <HAL_TIM_IRQHandler+0x13c>
 8003b4a:	6823      	ldr	r3, [r4, #0]
 8003b4c:	f46f 1200 	mvn.w	r2, #2097152	@ 0x200000
 8003b50:	611a      	str	r2, [r3, #16]
 8003b52:	4620      	mov	r0, r4
 8003b54:	f000 fd02 	bl	800455c <HAL_TIMEx_DirectionChangeCallback>
 8003b58:	0270      	lsls	r0, r6, #9
 8003b5a:	d508      	bpl.n	8003b6e <HAL_TIM_IRQHandler+0x152>
 8003b5c:	0269      	lsls	r1, r5, #9
 8003b5e:	d506      	bpl.n	8003b6e <HAL_TIM_IRQHandler+0x152>
 8003b60:	6823      	ldr	r3, [r4, #0]
 8003b62:	f46f 0280 	mvn.w	r2, #4194304	@ 0x400000
 8003b66:	611a      	str	r2, [r3, #16]
 8003b68:	4620      	mov	r0, r4
 8003b6a:	f000 fcf8 	bl	800455e <HAL_TIMEx_IndexErrorCallback>
 8003b6e:	0232      	lsls	r2, r6, #8
 8003b70:	d522      	bpl.n	8003bb8 <HAL_TIM_IRQHandler+0x19c>
 8003b72:	022b      	lsls	r3, r5, #8
 8003b74:	d520      	bpl.n	8003bb8 <HAL_TIM_IRQHandler+0x19c>
 8003b76:	6823      	ldr	r3, [r4, #0]
 8003b78:	f46f 0200 	mvn.w	r2, #8388608	@ 0x800000
 8003b7c:	4620      	mov	r0, r4
 8003b7e:	611a      	str	r2, [r3, #16]
 8003b80:	e8bd 4070 	ldmia.w	sp!, {r4, r5, r6, lr}
 8003b84:	f000 bcec 	b.w	8004560 <HAL_TIMEx_TransitionErrorCallback>
 8003b88:	f7fc fe30 	bl	80007ec <HAL_TIM_OC_DelayElapsedCallback>
 8003b8c:	4620      	mov	r0, r4
 8003b8e:	f7ff ff43 	bl	8003a18 <HAL_TIM_PWM_PulseFinishedCallback>
 8003b92:	e757      	b.n	8003a44 <HAL_TIM_IRQHandler+0x28>
 8003b94:	f7fc fe2a 	bl	80007ec <HAL_TIM_OC_DelayElapsedCallback>
 8003b98:	4620      	mov	r0, r4
 8003b9a:	f7ff ff3d 	bl	8003a18 <HAL_TIM_PWM_PulseFinishedCallback>
 8003b9e:	e765      	b.n	8003a6c <HAL_TIM_IRQHandler+0x50>
 8003ba0:	f7fc fe24 	bl	80007ec <HAL_TIM_OC_DelayElapsedCallback>
 8003ba4:	4620      	mov	r0, r4
 8003ba6:	f7ff ff37 	bl	8003a18 <HAL_TIM_PWM_PulseFinishedCallback>
 8003baa:	e772      	b.n	8003a92 <HAL_TIM_IRQHandler+0x76>
 8003bac:	f7fc fe1e 	bl	80007ec <HAL_TIM_OC_DelayElapsedCallback>
 8003bb0:	4620      	mov	r0, r4
 8003bb2:	f7ff ff31 	bl	8003a18 <HAL_TIM_PWM_PulseFinishedCallback>
 8003bb6:	e77f      	b.n	8003ab8 <HAL_TIM_IRQHandler+0x9c>
 8003bb8:	bd70      	pop	{r4, r5, r6, pc}
	...

08003bbc <TIM_Base_SetConfig>:
 8003bbc:	4a2d      	ldr	r2, [pc, #180]	@ (8003c74 <TIM_Base_SetConfig+0xb8>)
 8003bbe:	6803      	ldr	r3, [r0, #0]
 8003bc0:	4290      	cmp	r0, r2
 8003bc2:	d016      	beq.n	8003bf2 <TIM_Base_SetConfig+0x36>
 8003bc4:	f1b0 4f80 	cmp.w	r0, #1073741824	@ 0x40000000
 8003bc8:	d013      	beq.n	8003bf2 <TIM_Base_SetConfig+0x36>
 8003bca:	f5a2 3294 	sub.w	r2, r2, #75776	@ 0x12800
 8003bce:	4290      	cmp	r0, r2
 8003bd0:	d00f      	beq.n	8003bf2 <TIM_Base_SetConfig+0x36>
 8003bd2:	f502 6280 	add.w	r2, r2, #1024	@ 0x400
 8003bd6:	4290      	cmp	r0, r2
 8003bd8:	d00b      	beq.n	8003bf2 <TIM_Base_SetConfig+0x36>
 8003bda:	f502 6280 	add.w	r2, r2, #1024	@ 0x400
 8003bde:	4290      	cmp	r0, r2
 8003be0:	d007      	beq.n	8003bf2 <TIM_Base_SetConfig+0x36>
 8003be2:	f502 3294 	add.w	r2, r2, #75776	@ 0x12800
 8003be6:	4290      	cmp	r0, r2
 8003be8:	d003      	beq.n	8003bf2 <TIM_Base_SetConfig+0x36>
 8003bea:	f502 52e0 	add.w	r2, r2, #7168	@ 0x1c00
 8003bee:	4290      	cmp	r0, r2
 8003bf0:	d108      	bne.n	8003c04 <TIM_Base_SetConfig+0x48>
 8003bf2:	684a      	ldr	r2, [r1, #4]
 8003bf4:	f023 0370 	bic.w	r3, r3, #112	@ 0x70
 8003bf8:	4313      	orrs	r3, r2
 8003bfa:	68ca      	ldr	r2, [r1, #12]
 8003bfc:	f423 7340 	bic.w	r3, r3, #768	@ 0x300
 8003c00:	4313      	orrs	r3, r2
 8003c02:	e00a      	b.n	8003c1a <TIM_Base_SetConfig+0x5e>
 8003c04:	4a1c      	ldr	r2, [pc, #112]	@ (8003c78 <TIM_Base_SetConfig+0xbc>)
 8003c06:	4290      	cmp	r0, r2
 8003c08:	d0f7      	beq.n	8003bfa <TIM_Base_SetConfig+0x3e>
 8003c0a:	f502 6280 	add.w	r2, r2, #1024	@ 0x400
 8003c0e:	4290      	cmp	r0, r2
 8003c10:	d0f3      	beq.n	8003bfa <TIM_Base_SetConfig+0x3e>
 8003c12:	f502 6280 	add.w	r2, r2, #1024	@ 0x400
 8003c16:	4290      	cmp	r0, r2
 8003c18:	d0ef      	beq.n	8003bfa <TIM_Base_SetConfig+0x3e>
 8003c1a:	694a      	ldr	r2, [r1, #20]
 8003c1c:	f023 0380 	bic.w	r3, r3, #128	@ 0x80
 8003c20:	4313      	orrs	r3, r2
 8003c22:	6003      	str	r3, [r0, #0]
 8003c24:	688b      	ldr	r3, [r1, #8]
 8003c26:	62c3      	str	r3, [r0, #44]	@ 0x2c
 8003c28:	680b      	ldr	r3, [r1, #0]
 8003c2a:	6283      	str	r3, [r0, #40]	@ 0x28
 8003c2c:	4b11      	ldr	r3, [pc, #68]	@ (8003c74 <TIM_Base_SetConfig+0xb8>)
 8003c2e:	4298      	cmp	r0, r3
 8003c30:	d013      	beq.n	8003c5a <TIM_Base_SetConfig+0x9e>
 8003c32:	f503 6300 	add.w	r3, r3, #2048	@ 0x800
 8003c36:	4298      	cmp	r0, r3
 8003c38:	d00f      	beq.n	8003c5a <TIM_Base_SetConfig+0x9e>
 8003c3a:	f503 6340 	add.w	r3, r3, #3072	@ 0xc00
 8003c3e:	4298      	cmp	r0, r3
 8003c40:	d00b      	beq.n	8003c5a <TIM_Base_SetConfig+0x9e>
 8003c42:	f503 6380 	add.w	r3, r3, #1024	@ 0x400
 8003c46:	4298      	cmp	r0, r3
 8003c48:	d007      	beq.n	8003c5a <TIM_Base_SetConfig+0x9e>
 8003c4a:	f503 6380 	add.w	r3, r3, #1024	@ 0x400
 8003c4e:	4298      	cmp	r0, r3
 8003c50:	d003      	beq.n	8003c5a <TIM_Base_SetConfig+0x9e>
 8003c52:	f503 6300 	add.w	r3, r3, #2048	@ 0x800
 8003c56:	4298      	cmp	r0, r3
 8003c58:	d101      	bne.n	8003c5e <TIM_Base_SetConfig+0xa2>
 8003c5a:	690b      	ldr	r3, [r1, #16]
 8003c5c:	6303      	str	r3, [r0, #48]	@ 0x30
 8003c5e:	2301      	movs	r3, #1
 8003c60:	6143      	str	r3, [r0, #20]
 8003c62:	6903      	ldr	r3, [r0, #16]
 8003c64:	07db      	lsls	r3, r3, #31
 8003c66:	bf42      	ittt	mi
 8003c68:	6903      	ldrmi	r3, [r0, #16]
 8003c6a:	f023 0301 	bicmi.w	r3, r3, #1
 8003c6e:	6103      	strmi	r3, [r0, #16]
 8003c70:	4770      	bx	lr
 8003c72:	bf00      	nop
 8003c74:	40012c00 	.word	0x40012c00
 8003c78:	40014000 	.word	0x40014000

08003c7c <HAL_TIM_Base_Init>:
 8003c7c:	b510      	push	{r4, lr}
 8003c7e:	4604      	mov	r4, r0
 8003c80:	b350      	cbz	r0, 8003cd8 <HAL_TIM_Base_Init+0x5c>
 8003c82:	f890 303d 	ldrb.w	r3, [r0, #61]	@ 0x3d
 8003c86:	f003 02ff 	and.w	r2, r3, #255	@ 0xff
 8003c8a:	b91b      	cbnz	r3, 8003c94 <HAL_TIM_Base_Init+0x18>
 8003c8c:	f880 203c 	strb.w	r2, [r0, #60]	@ 0x3c
 8003c90:	f7fd fa62 	bl	8001158 <HAL_TIM_Base_MspInit>
 8003c94:	2302      	movs	r3, #2
 8003c96:	6820      	ldr	r0, [r4, #0]
 8003c98:	f884 303d 	strb.w	r3, [r4, #61]	@ 0x3d
 8003c9c:	1d21      	adds	r1, r4, #4
 8003c9e:	f7ff ff8d 	bl	8003bbc <TIM_Base_SetConfig>
 8003ca2:	2301      	movs	r3, #1
 8003ca4:	f884 3048 	strb.w	r3, [r4, #72]	@ 0x48
 8003ca8:	2000      	movs	r0, #0
 8003caa:	f884 303e 	strb.w	r3, [r4, #62]	@ 0x3e
 8003cae:	f884 303f 	strb.w	r3, [r4, #63]	@ 0x3f
 8003cb2:	f884 3040 	strb.w	r3, [r4, #64]	@ 0x40
 8003cb6:	f884 3041 	strb.w	r3, [r4, #65]	@ 0x41
 8003cba:	f884 3042 	strb.w	r3, [r4, #66]	@ 0x42
 8003cbe:	f884 3043 	strb.w	r3, [r4, #67]	@ 0x43
 8003cc2:	f884 3044 	strb.w	r3, [r4, #68]	@ 0x44
 8003cc6:	f884 3045 	strb.w	r3, [r4, #69]	@ 0x45
 8003cca:	f884 3046 	strb.w	r3, [r4, #70]	@ 0x46
 8003cce:	f884 3047 	strb.w	r3, [r4, #71]	@ 0x47
 8003cd2:	f884 303d 	strb.w	r3, [r4, #61]	@ 0x3d
 8003cd6:	bd10      	pop	{r4, pc}
 8003cd8:	2001      	movs	r0, #1
 8003cda:	e7fc      	b.n	8003cd6 <HAL_TIM_Base_Init+0x5a>

08003cdc <HAL_TIM_OC_Init>:
 8003cdc:	b510      	push	{r4, lr}
 8003cde:	4604      	mov	r4, r0
 8003ce0:	b350      	cbz	r0, 8003d38 <HAL_TIM_OC_Init+0x5c>
 8003ce2:	f890 303d 	ldrb.w	r3, [r0, #61]	@ 0x3d
 8003ce6:	f003 02ff 	and.w	r2, r3, #255	@ 0xff
 8003cea:	b91b      	cbnz	r3, 8003cf4 <HAL_TIM_OC_Init+0x18>
 8003cec:	f880 203c 	strb.w	r2, [r0, #60]	@ 0x3c
 8003cf0:	f7ff fe90 	bl	8003a14 <HAL_TIM_OC_MspInit>
 8003cf4:	2302      	movs	r3, #2
 8003cf6:	6820      	ldr	r0, [r4, #0]
 8003cf8:	f884 303d 	strb.w	r3, [r4, #61]	@ 0x3d
 8003cfc:	1d21      	adds	r1, r4, #4
 8003cfe:	f7ff ff5d 	bl	8003bbc <TIM_Base_SetConfig>
 8003d02:	2301      	movs	r3, #1
 8003d04:	f884 3048 	strb.w	r3, [r4, #72]	@ 0x48
 8003d08:	2000      	movs	r0, #0
 8003d0a:	f884 303e 	strb.w	r3, [r4, #62]	@ 0x3e
 8003d0e:	f884 303f 	strb.w	r3, [r4, #63]	@ 0x3f
 8003d12:	f884 3040 	strb.w	r3, [r4, #64]	@ 0x40
 8003d16:	f884 3041 	strb.w	r3, [r4, #65]	@ 0x41
 8003d1a:	f884 3042 	strb.w	r3, [r4, #66]	@ 0x42
 8003d1e:	f884 3043 	strb.w	r3, [r4, #67]	@ 0x43
 8003d22:	f884 3044 	strb.w	r3, [r4, #68]	@ 0x44
 8003d26:	f884 3045 	strb.w	r3, [r4, #69]	@ 0x45
 8003d2a:	f884 3046 	strb.w	r3, [r4, #70]	@ 0x46
 8003d2e:	f884 3047 	strb.w	r3, [r4, #71]	@ 0x47
 8003d32:	f884 303d 	strb.w	r3, [r4, #61]	@ 0x3d
 8003d36:	bd10      	pop	{r4, pc}
 8003d38:	2001      	movs	r0, #1
 8003d3a:	e7fc      	b.n	8003d36 <HAL_TIM_OC_Init+0x5a>

08003d3c <HAL_TIM_PWM_Init>:
 8003d3c:	b510      	push	{r4, lr}
 8003d3e:	4604      	mov	r4, r0
 8003d40:	b350      	cbz	r0, 8003d98 <HAL_TIM_PWM_Init+0x5c>
 8003d42:	f890 303d 	ldrb.w	r3, [r0, #61]	@ 0x3d
 8003d46:	f003 02ff 	and.w	r2, r3, #255	@ 0xff
 8003d4a:	b91b      	cbnz	r3, 8003d54 <HAL_TIM_PWM_Init+0x18>
 8003d4c:	f880 203c 	strb.w	r2, [r0, #60]	@ 0x3c
 8003d50:	f7fd f9e2 	bl	8001118 <HAL_TIM_PWM_MspInit>
 8003d54:	2302      	movs	r3, #2
 8003d56:	6820      	ldr	r0, [r4, #0]
 8003d58:	f884 303d 	strb.w	r3, [r4, #61]	@ 0x3d
 8003d5c:	1d21      	adds	r1, r4, #4
 8003d5e:	f7ff ff2d 	bl	8003bbc <TIM_Base_SetConfig>
 8003d62:	2301      	movs	r3, #1
 8003d64:	f884 3048 	strb.w	r3, [r4, #72]	@ 0x48
 8003d68:	2000      	movs	r0, #0
 8003d6a:	f884 303e 	strb.w	r3, [r4, #62]	@ 0x3e
 8003d6e:	f884 303f 	strb.w	r3, [r4, #63]	@ 0x3f
 8003d72:	f884 3040 	strb.w	r3, [r4, #64]	@ 0x40
 8003d76:	f884 3041 	strb.w	r3, [r4, #65]	@ 0x41
 8003d7a:	f884 3042 	strb.w	r3, [r4, #66]	@ 0x42
 8003d7e:	f884 3043 	strb.w	r3, [r4, #67]	@ 0x43
 8003d82:	f884 3044 	strb.w	r3, [r4, #68]	@ 0x44
 8003d86:	f884 3045 	strb.w	r3, [r4, #69]	@ 0x45
 8003d8a:	f884 3046 	strb.w	r3, [r4, #70]	@ 0x46
 8003d8e:	f884 3047 	strb.w	r3, [r4, #71]	@ 0x47
 8003d92:	f884 303d 	strb.w	r3, [r4, #61]	@ 0x3d
 8003d96:	bd10      	pop	{r4, pc}
 8003d98:	2001      	movs	r0, #1
 8003d9a:	e7fc      	b.n	8003d96 <HAL_TIM_PWM_Init+0x5a>

08003d9c <TIM_OC2_SetConfig>:
 8003d9c:	6a03      	ldr	r3, [r0, #32]
 8003d9e:	6a02      	ldr	r2, [r0, #32]
 8003da0:	f022 0210 	bic.w	r2, r2, #16
 8003da4:	b570      	push	{r4, r5, r6, lr}
 8003da6:	6202      	str	r2, [r0, #32]
 8003da8:	6844      	ldr	r4, [r0, #4]
 8003daa:	6982      	ldr	r2, [r0, #24]
 8003dac:	680d      	ldr	r5, [r1, #0]
 8003dae:	f022 7280 	bic.w	r2, r2, #16777216	@ 0x1000000
 8003db2:	f422 42e6 	bic.w	r2, r2, #29440	@ 0x7300
 8003db6:	ea42 2205 	orr.w	r2, r2, r5, lsl #8
 8003dba:	688d      	ldr	r5, [r1, #8]
 8003dbc:	f023 0320 	bic.w	r3, r3, #32
 8003dc0:	ea43 1305 	orr.w	r3, r3, r5, lsl #4
 8003dc4:	4d14      	ldr	r5, [pc, #80]	@ (8003e18 <TIM_OC2_SetConfig+0x7c>)
 8003dc6:	42a8      	cmp	r0, r5
 8003dc8:	d007      	beq.n	8003dda <TIM_OC2_SetConfig+0x3e>
 8003dca:	f505 6500 	add.w	r5, r5, #2048	@ 0x800
 8003dce:	42a8      	cmp	r0, r5
 8003dd0:	d003      	beq.n	8003dda <TIM_OC2_SetConfig+0x3e>
 8003dd2:	f505 55e0 	add.w	r5, r5, #7168	@ 0x1c00
 8003dd6:	42a8      	cmp	r0, r5
 8003dd8:	d10e      	bne.n	8003df8 <TIM_OC2_SetConfig+0x5c>
 8003dda:	68cd      	ldr	r5, [r1, #12]
 8003ddc:	f023 0380 	bic.w	r3, r3, #128	@ 0x80
 8003de0:	ea43 1305 	orr.w	r3, r3, r5, lsl #4
 8003de4:	f023 0340 	bic.w	r3, r3, #64	@ 0x40
 8003de8:	f424 6540 	bic.w	r5, r4, #3072	@ 0xc00
 8003dec:	e9d1 4605 	ldrd	r4, r6, [r1, #20]
 8003df0:	4334      	orrs	r4, r6
 8003df2:	ea45 0484 	orr.w	r4, r5, r4, lsl #2
 8003df6:	e009      	b.n	8003e0c <TIM_OC2_SetConfig+0x70>
 8003df8:	4d08      	ldr	r5, [pc, #32]	@ (8003e1c <TIM_OC2_SetConfig+0x80>)
 8003dfa:	42a8      	cmp	r0, r5
 8003dfc:	d0f4      	beq.n	8003de8 <TIM_OC2_SetConfig+0x4c>
 8003dfe:	4d08      	ldr	r5, [pc, #32]	@ (8003e20 <TIM_OC2_SetConfig+0x84>)
 8003e00:	42a8      	cmp	r0, r5
 8003e02:	d0f1      	beq.n	8003de8 <TIM_OC2_SetConfig+0x4c>
 8003e04:	f505 6580 	add.w	r5, r5, #1024	@ 0x400
 8003e08:	42a8      	cmp	r0, r5
 8003e0a:	d0ed      	beq.n	8003de8 <TIM_OC2_SetConfig+0x4c>
 8003e0c:	6044      	str	r4, [r0, #4]
 8003e0e:	6182      	str	r2, [r0, #24]
 8003e10:	684a      	ldr	r2, [r1, #4]
 8003e12:	6382      	str	r2, [r0, #56]	@ 0x38
 8003e14:	6203      	str	r3, [r0, #32]
 8003e16:	bd70      	pop	{r4, r5, r6, pc}
 8003e18:	40012c00 	.word	0x40012c00
 8003e1c:	40014000 	.word	0x40014000
 8003e20:	40014400 	.word	0x40014400

08003e24 <HAL_TIM_OC_ConfigChannel>:
 8003e24:	b510      	push	{r4, lr}
 8003e26:	f890 303c 	ldrb.w	r3, [r0, #60]	@ 0x3c
 8003e2a:	2b01      	cmp	r3, #1
 8003e2c:	4604      	mov	r4, r0
 8003e2e:	d029      	beq.n	8003e84 <HAL_TIM_OC_ConfigChannel+0x60>
 8003e30:	2a0c      	cmp	r2, #12
 8003e32:	d01f      	beq.n	8003e74 <HAL_TIM_OC_ConfigChannel+0x50>
 8003e34:	d809      	bhi.n	8003e4a <HAL_TIM_OC_ConfigChannel+0x26>
 8003e36:	2a04      	cmp	r2, #4
 8003e38:	d014      	beq.n	8003e64 <HAL_TIM_OC_ConfigChannel+0x40>
 8003e3a:	2a08      	cmp	r2, #8
 8003e3c:	d016      	beq.n	8003e6c <HAL_TIM_OC_ConfigChannel+0x48>
 8003e3e:	b162      	cbz	r2, 8003e5a <HAL_TIM_OC_ConfigChannel+0x36>
 8003e40:	2001      	movs	r0, #1
 8003e42:	2300      	movs	r3, #0
 8003e44:	f884 303c 	strb.w	r3, [r4, #60]	@ 0x3c
 8003e48:	bd10      	pop	{r4, pc}
 8003e4a:	2a10      	cmp	r2, #16
 8003e4c:	d016      	beq.n	8003e7c <HAL_TIM_OC_ConfigChannel+0x58>
 8003e4e:	2a14      	cmp	r2, #20
 8003e50:	d1f6      	bne.n	8003e40 <HAL_TIM_OC_ConfigChannel+0x1c>
 8003e52:	6800      	ldr	r0, [r0, #0]
 8003e54:	f7ff fd68 	bl	8003928 <TIM_OC6_SetConfig>
 8003e58:	e002      	b.n	8003e60 <HAL_TIM_OC_ConfigChannel+0x3c>
 8003e5a:	6800      	ldr	r0, [r0, #0]
 8003e5c:	f7ff fc66 	bl	800372c <TIM_OC1_SetConfig>
 8003e60:	2000      	movs	r0, #0
 8003e62:	e7ee      	b.n	8003e42 <HAL_TIM_OC_ConfigChannel+0x1e>
 8003e64:	6800      	ldr	r0, [r0, #0]
 8003e66:	f7ff ff99 	bl	8003d9c <TIM_OC2_SetConfig>
 8003e6a:	e7f9      	b.n	8003e60 <HAL_TIM_OC_ConfigChannel+0x3c>
 8003e6c:	6800      	ldr	r0, [r0, #0]
 8003e6e:	f7ff fc9b 	bl	80037a8 <TIM_OC3_SetConfig>
 8003e72:	e7f5      	b.n	8003e60 <HAL_TIM_OC_ConfigChannel+0x3c>
 8003e74:	6800      	ldr	r0, [r0, #0]
 8003e76:	f7ff fcdb 	bl	8003830 <TIM_OC4_SetConfig>
 8003e7a:	e7f1      	b.n	8003e60 <HAL_TIM_OC_ConfigChannel+0x3c>
 8003e7c:	6800      	ldr	r0, [r0, #0]
 8003e7e:	f7ff fd1b 	bl	80038b8 <TIM_OC5_SetConfig>
 8003e82:	e7ed      	b.n	8003e60 <HAL_TIM_OC_ConfigChannel+0x3c>
 8003e84:	2002      	movs	r0, #2
 8003e86:	e7df      	b.n	8003e48 <HAL_TIM_OC_ConfigChannel+0x24>

08003e88 <HAL_TIM_PWM_ConfigChannel>:
 8003e88:	b538      	push	{r3, r4, r5, lr}
 8003e8a:	f890 303c 	ldrb.w	r3, [r0, #60]	@ 0x3c
 8003e8e:	2b01      	cmp	r3, #1
 8003e90:	4604      	mov	r4, r0
 8003e92:	d073      	beq.n	8003f7c <HAL_TIM_PWM_ConfigChannel+0xf4>
 8003e94:	2001      	movs	r0, #1
 8003e96:	2a0c      	cmp	r2, #12
 8003e98:	f884 003c 	strb.w	r0, [r4, #60]	@ 0x3c
 8003e9c:	d04e      	beq.n	8003f3c <HAL_TIM_PWM_ConfigChannel+0xb4>
 8003e9e:	d808      	bhi.n	8003eb2 <HAL_TIM_PWM_ConfigChannel+0x2a>
 8003ea0:	2a04      	cmp	r2, #4
 8003ea2:	d02b      	beq.n	8003efc <HAL_TIM_PWM_ConfigChannel+0x74>
 8003ea4:	2a08      	cmp	r2, #8
 8003ea6:	d039      	beq.n	8003f1c <HAL_TIM_PWM_ConfigChannel+0x94>
 8003ea8:	b1ba      	cbz	r2, 8003eda <HAL_TIM_PWM_ConfigChannel+0x52>
 8003eaa:	2300      	movs	r3, #0
 8003eac:	f884 303c 	strb.w	r3, [r4, #60]	@ 0x3c
 8003eb0:	bd38      	pop	{r3, r4, r5, pc}
 8003eb2:	2a10      	cmp	r2, #16
 8003eb4:	d052      	beq.n	8003f5c <HAL_TIM_PWM_ConfigChannel+0xd4>
 8003eb6:	2a14      	cmp	r2, #20
 8003eb8:	d1f7      	bne.n	8003eaa <HAL_TIM_PWM_ConfigChannel+0x22>
 8003eba:	6820      	ldr	r0, [r4, #0]
 8003ebc:	f7ff fd34 	bl	8003928 <TIM_OC6_SetConfig>
 8003ec0:	6d03      	ldr	r3, [r0, #80]	@ 0x50
 8003ec2:	690a      	ldr	r2, [r1, #16]
 8003ec4:	f443 6300 	orr.w	r3, r3, #2048	@ 0x800
 8003ec8:	6503      	str	r3, [r0, #80]	@ 0x50
 8003eca:	6d03      	ldr	r3, [r0, #80]	@ 0x50
 8003ecc:	f423 6380 	bic.w	r3, r3, #1024	@ 0x400
 8003ed0:	6503      	str	r3, [r0, #80]	@ 0x50
 8003ed2:	6d03      	ldr	r3, [r0, #80]	@ 0x50
 8003ed4:	ea43 2302 	orr.w	r3, r3, r2, lsl #8
 8003ed8:	e04e      	b.n	8003f78 <HAL_TIM_PWM_ConfigChannel+0xf0>
 8003eda:	6820      	ldr	r0, [r4, #0]
 8003edc:	f7ff fc26 	bl	800372c <TIM_OC1_SetConfig>
 8003ee0:	6983      	ldr	r3, [r0, #24]
 8003ee2:	690a      	ldr	r2, [r1, #16]
 8003ee4:	f043 0308 	orr.w	r3, r3, #8
 8003ee8:	6183      	str	r3, [r0, #24]
 8003eea:	6983      	ldr	r3, [r0, #24]
 8003eec:	f023 0304 	bic.w	r3, r3, #4
 8003ef0:	6183      	str	r3, [r0, #24]
 8003ef2:	6983      	ldr	r3, [r0, #24]
 8003ef4:	4313      	orrs	r3, r2
 8003ef6:	6183      	str	r3, [r0, #24]
 8003ef8:	2000      	movs	r0, #0
 8003efa:	e7d6      	b.n	8003eaa <HAL_TIM_PWM_ConfigChannel+0x22>
 8003efc:	6820      	ldr	r0, [r4, #0]
 8003efe:	f7ff ff4d 	bl	8003d9c <TIM_OC2_SetConfig>
 8003f02:	6983      	ldr	r3, [r0, #24]
 8003f04:	690a      	ldr	r2, [r1, #16]
 8003f06:	f443 6300 	orr.w	r3, r3, #2048	@ 0x800
 8003f0a:	6183      	str	r3, [r0, #24]
 8003f0c:	6983      	ldr	r3, [r0, #24]
 8003f0e:	f423 6380 	bic.w	r3, r3, #1024	@ 0x400
 8003f12:	6183      	str	r3, [r0, #24]
 8003f14:	6983      	ldr	r3, [r0, #24]
 8003f16:	ea43 2302 	orr.w	r3, r3, r2, lsl #8
 8003f1a:	e7ec      	b.n	8003ef6 <HAL_TIM_PWM_ConfigChannel+0x6e>
 8003f1c:	6820      	ldr	r0, [r4, #0]
 8003f1e:	f7ff fc43 	bl	80037a8 <TIM_OC3_SetConfig>
 8003f22:	69c3      	ldr	r3, [r0, #28]
 8003f24:	690a      	ldr	r2, [r1, #16]
 8003f26:	f043 0308 	orr.w	r3, r3, #8
 8003f2a:	61c3      	str	r3, [r0, #28]
 8003f2c:	69c3      	ldr	r3, [r0, #28]
 8003f2e:	f023 0304 	bic.w	r3, r3, #4
 8003f32:	61c3      	str	r3, [r0, #28]
 8003f34:	69c3      	ldr	r3, [r0, #28]
 8003f36:	4313      	orrs	r3, r2
 8003f38:	61c3      	str	r3, [r0, #28]
 8003f3a:	e7dd      	b.n	8003ef8 <HAL_TIM_PWM_ConfigChannel+0x70>
 8003f3c:	6820      	ldr	r0, [r4, #0]
 8003f3e:	f7ff fc77 	bl	8003830 <TIM_OC4_SetConfig>
 8003f42:	69c3      	ldr	r3, [r0, #28]
 8003f44:	690a      	ldr	r2, [r1, #16]
 8003f46:	f443 6300 	orr.w	r3, r3, #2048	@ 0x800
 8003f4a:	61c3      	str	r3, [r0, #28]
 8003f4c:	69c3      	ldr	r3, [r0, #28]
 8003f4e:	f423 6380 	bic.w	r3, r3, #1024	@ 0x400
 8003f52:	61c3      	str	r3, [r0, #28]
 8003f54:	69c3      	ldr	r3, [r0, #28]
 8003f56:	ea43 2302 	orr.w	r3, r3, r2, lsl #8
 8003f5a:	e7ed      	b.n	8003f38 <HAL_TIM_PWM_ConfigChannel+0xb0>
 8003f5c:	6820      	ldr	r0, [r4, #0]
 8003f5e:	f7ff fcab 	bl	80038b8 <TIM_OC5_SetConfig>
 8003f62:	6d03      	ldr	r3, [r0, #80]	@ 0x50
 8003f64:	690a      	ldr	r2, [r1, #16]
 8003f66:	f043 0308 	orr.w	r3, r3, #8
 8003f6a:	6503      	str	r3, [r0, #80]	@ 0x50
 8003f6c:	6d03      	ldr	r3, [r0, #80]	@ 0x50
 8003f6e:	f023 0304 	bic.w	r3, r3, #4
 8003f72:	6503      	str	r3, [r0, #80]	@ 0x50
 8003f74:	6d03      	ldr	r3, [r0, #80]	@ 0x50
 8003f76:	4313      	orrs	r3, r2
 8003f78:	6503      	str	r3, [r0, #80]	@ 0x50
 8003f7a:	e7bd      	b.n	8003ef8 <HAL_TIM_PWM_ConfigChannel+0x70>
 8003f7c:	2002      	movs	r0, #2
 8003f7e:	e797      	b.n	8003eb0 <HAL_TIM_PWM_ConfigChannel+0x28>

08003f80 <TIM_CCxChannelCmd>:
 8003f80:	6a03      	ldr	r3, [r0, #32]
 8003f82:	b510      	push	{r4, lr}
 8003f84:	f001 011f 	and.w	r1, r1, #31
 8003f88:	2401      	movs	r4, #1
 8003f8a:	408c      	lsls	r4, r1
 8003f8c:	ea23 0304 	bic.w	r3, r3, r4
 8003f90:	6203      	str	r3, [r0, #32]
 8003f92:	6a03      	ldr	r3, [r0, #32]
 8003f94:	408a      	lsls	r2, r1
 8003f96:	431a      	orrs	r2, r3
 8003f98:	6202      	str	r2, [r0, #32]
 8003f9a:	bd10      	pop	{r4, pc}

08003f9c <HAL_TIM_OC_Start>:
 8003f9c:	2908      	cmp	r1, #8
 8003f9e:	b508      	push	{r3, lr}
 8003fa0:	d018      	beq.n	8003fd4 <HAL_TIM_OC_Start+0x38>
 8003fa2:	d805      	bhi.n	8003fb0 <HAL_TIM_OC_Start+0x14>
 8003fa4:	b159      	cbz	r1, 8003fbe <HAL_TIM_OC_Start+0x22>
 8003fa6:	2904      	cmp	r1, #4
 8003fa8:	d011      	beq.n	8003fce <HAL_TIM_OC_Start+0x32>
 8003faa:	f890 3043 	ldrb.w	r3, [r0, #67]	@ 0x43
 8003fae:	e008      	b.n	8003fc2 <HAL_TIM_OC_Start+0x26>
 8003fb0:	290c      	cmp	r1, #12
 8003fb2:	d012      	beq.n	8003fda <HAL_TIM_OC_Start+0x3e>
 8003fb4:	2910      	cmp	r1, #16
 8003fb6:	d1f8      	bne.n	8003faa <HAL_TIM_OC_Start+0xe>
 8003fb8:	f890 3042 	ldrb.w	r3, [r0, #66]	@ 0x42
 8003fbc:	e001      	b.n	8003fc2 <HAL_TIM_OC_Start+0x26>
 8003fbe:	f890 303e 	ldrb.w	r3, [r0, #62]	@ 0x3e
 8003fc2:	3b01      	subs	r3, #1
 8003fc4:	bf18      	it	ne
 8003fc6:	2301      	movne	r3, #1
 8003fc8:	b153      	cbz	r3, 8003fe0 <HAL_TIM_OC_Start+0x44>
 8003fca:	2001      	movs	r0, #1
 8003fcc:	e049      	b.n	8004062 <HAL_TIM_OC_Start+0xc6>
 8003fce:	f890 303f 	ldrb.w	r3, [r0, #63]	@ 0x3f
 8003fd2:	e7f6      	b.n	8003fc2 <HAL_TIM_OC_Start+0x26>
 8003fd4:	f890 3040 	ldrb.w	r3, [r0, #64]	@ 0x40
 8003fd8:	e7f3      	b.n	8003fc2 <HAL_TIM_OC_Start+0x26>
 8003fda:	f890 3041 	ldrb.w	r3, [r0, #65]	@ 0x41
 8003fde:	e7f0      	b.n	8003fc2 <HAL_TIM_OC_Start+0x26>
 8003fe0:	2908      	cmp	r1, #8
 8003fe2:	f04f 0302 	mov.w	r3, #2
 8003fe6:	d040      	beq.n	800406a <HAL_TIM_OC_Start+0xce>
 8003fe8:	d806      	bhi.n	8003ff8 <HAL_TIM_OC_Start+0x5c>
 8003fea:	b161      	cbz	r1, 8004006 <HAL_TIM_OC_Start+0x6a>
 8003fec:	2904      	cmp	r1, #4
 8003fee:	d039      	beq.n	8004064 <HAL_TIM_OC_Start+0xc8>
 8003ff0:	2302      	movs	r3, #2
 8003ff2:	f880 3043 	strb.w	r3, [r0, #67]	@ 0x43
 8003ff6:	e008      	b.n	800400a <HAL_TIM_OC_Start+0x6e>
 8003ff8:	290c      	cmp	r1, #12
 8003ffa:	d039      	beq.n	8004070 <HAL_TIM_OC_Start+0xd4>
 8003ffc:	2910      	cmp	r1, #16
 8003ffe:	d1f7      	bne.n	8003ff0 <HAL_TIM_OC_Start+0x54>
 8004000:	f880 3042 	strb.w	r3, [r0, #66]	@ 0x42
 8004004:	e001      	b.n	800400a <HAL_TIM_OC_Start+0x6e>
 8004006:	f880 303e 	strb.w	r3, [r0, #62]	@ 0x3e
 800400a:	6800      	ldr	r0, [r0, #0]
 800400c:	2201      	movs	r2, #1
 800400e:	f7ff ffb7 	bl	8003f80 <TIM_CCxChannelCmd>
 8004012:	4b27      	ldr	r3, [pc, #156]	@ (80040b0 <HAL_TIM_OC_Start+0x114>)
 8004014:	4298      	cmp	r0, r3
 8004016:	d013      	beq.n	8004040 <HAL_TIM_OC_Start+0xa4>
 8004018:	f503 6300 	add.w	r3, r3, #2048	@ 0x800
 800401c:	4298      	cmp	r0, r3
 800401e:	d00f      	beq.n	8004040 <HAL_TIM_OC_Start+0xa4>
 8004020:	f503 6340 	add.w	r3, r3, #3072	@ 0xc00
 8004024:	4298      	cmp	r0, r3
 8004026:	d00b      	beq.n	8004040 <HAL_TIM_OC_Start+0xa4>
 8004028:	f503 6380 	add.w	r3, r3, #1024	@ 0x400
 800402c:	4298      	cmp	r0, r3
 800402e:	d007      	beq.n	8004040 <HAL_TIM_OC_Start+0xa4>
 8004030:	f503 6380 	add.w	r3, r3, #1024	@ 0x400
 8004034:	4298      	cmp	r0, r3
 8004036:	d003      	beq.n	8004040 <HAL_TIM_OC_Start+0xa4>
 8004038:	f503 6300 	add.w	r3, r3, #2048	@ 0x800
 800403c:	4298      	cmp	r0, r3
 800403e:	d11a      	bne.n	8004076 <HAL_TIM_OC_Start+0xda>
 8004040:	6c43      	ldr	r3, [r0, #68]	@ 0x44
 8004042:	f443 4300 	orr.w	r3, r3, #32768	@ 0x8000
 8004046:	6443      	str	r3, [r0, #68]	@ 0x44
 8004048:	4b19      	ldr	r3, [pc, #100]	@ (80040b0 <HAL_TIM_OC_Start+0x114>)
 800404a:	4298      	cmp	r0, r3
 800404c:	d003      	beq.n	8004056 <HAL_TIM_OC_Start+0xba>
 800404e:	f503 6300 	add.w	r3, r3, #2048	@ 0x800
 8004052:	4298      	cmp	r0, r3
 8004054:	d122      	bne.n	800409c <HAL_TIM_OC_Start+0x100>
 8004056:	6882      	ldr	r2, [r0, #8]
 8004058:	4b16      	ldr	r3, [pc, #88]	@ (80040b4 <HAL_TIM_OC_Start+0x118>)
 800405a:	4013      	ands	r3, r2
 800405c:	2b06      	cmp	r3, #6
 800405e:	d123      	bne.n	80040a8 <HAL_TIM_OC_Start+0x10c>
 8004060:	2000      	movs	r0, #0
 8004062:	bd08      	pop	{r3, pc}
 8004064:	f880 303f 	strb.w	r3, [r0, #63]	@ 0x3f
 8004068:	e7cf      	b.n	800400a <HAL_TIM_OC_Start+0x6e>
 800406a:	f880 3040 	strb.w	r3, [r0, #64]	@ 0x40
 800406e:	e7cc      	b.n	800400a <HAL_TIM_OC_Start+0x6e>
 8004070:	f880 3041 	strb.w	r3, [r0, #65]	@ 0x41
 8004074:	e7c9      	b.n	800400a <HAL_TIM_OC_Start+0x6e>
 8004076:	f1b0 4f80 	cmp.w	r0, #1073741824	@ 0x40000000
 800407a:	d0ec      	beq.n	8004056 <HAL_TIM_OC_Start+0xba>
 800407c:	4b0e      	ldr	r3, [pc, #56]	@ (80040b8 <HAL_TIM_OC_Start+0x11c>)
 800407e:	4298      	cmp	r0, r3
 8004080:	d0e9      	beq.n	8004056 <HAL_TIM_OC_Start+0xba>
 8004082:	f503 6380 	add.w	r3, r3, #1024	@ 0x400
 8004086:	4298      	cmp	r0, r3
 8004088:	d0e5      	beq.n	8004056 <HAL_TIM_OC_Start+0xba>
 800408a:	f503 6380 	add.w	r3, r3, #1024	@ 0x400
 800408e:	4298      	cmp	r0, r3
 8004090:	d0e1      	beq.n	8004056 <HAL_TIM_OC_Start+0xba>
 8004092:	6803      	ldr	r3, [r0, #0]
 8004094:	f043 0301 	orr.w	r3, r3, #1
 8004098:	6003      	str	r3, [r0, #0]
 800409a:	e7e1      	b.n	8004060 <HAL_TIM_OC_Start+0xc4>
 800409c:	4b07      	ldr	r3, [pc, #28]	@ (80040bc <HAL_TIM_OC_Start+0x120>)
 800409e:	4298      	cmp	r0, r3
 80040a0:	d0d9      	beq.n	8004056 <HAL_TIM_OC_Start+0xba>
 80040a2:	f503 5380 	add.w	r3, r3, #4096	@ 0x1000
 80040a6:	e7f2      	b.n	800408e <HAL_TIM_OC_Start+0xf2>
 80040a8:	f5b3 3f80 	cmp.w	r3, #65536	@ 0x10000
 80040ac:	d1f1      	bne.n	8004092 <HAL_TIM_OC_Start+0xf6>
 80040ae:	e7d7      	b.n	8004060 <HAL_TIM_OC_Start+0xc4>
 80040b0:	40012c00 	.word	0x40012c00
 80040b4:	00010007 	.word	0x00010007
 80040b8:	40000400 	.word	0x40000400
 80040bc:	40014000 	.word	0x40014000

080040c0 <HAL_TIM_PWM_Start>:
 80040c0:	f7ff bf6c 	b.w	8003f9c <HAL_TIM_OC_Start>

080040c4 <HAL_TIM_OC_Stop>:
 80040c4:	b538      	push	{r3, r4, r5, lr}
 80040c6:	2200      	movs	r2, #0
 80040c8:	4604      	mov	r4, r0
 80040ca:	6800      	ldr	r0, [r0, #0]
 80040cc:	460d      	mov	r5, r1
 80040ce:	f7ff ff57 	bl	8003f80 <TIM_CCxChannelCmd>
 80040d2:	4b29      	ldr	r3, [pc, #164]	@ (8004178 <HAL_TIM_OC_Stop+0xb4>)
 80040d4:	4298      	cmp	r0, r3
 80040d6:	d013      	beq.n	8004100 <HAL_TIM_OC_Stop+0x3c>
 80040d8:	f503 6300 	add.w	r3, r3, #2048	@ 0x800
 80040dc:	4298      	cmp	r0, r3
 80040de:	d00f      	beq.n	8004100 <HAL_TIM_OC_Stop+0x3c>
 80040e0:	f503 6340 	add.w	r3, r3, #3072	@ 0xc00
 80040e4:	4298      	cmp	r0, r3
 80040e6:	d00b      	beq.n	8004100 <HAL_TIM_OC_Stop+0x3c>
 80040e8:	f503 6380 	add.w	r3, r3, #1024	@ 0x400
 80040ec:	4298      	cmp	r0, r3
 80040ee:	d007      	beq.n	8004100 <HAL_TIM_OC_Stop+0x3c>
 80040f0:	f503 6380 	add.w	r3, r3, #1024	@ 0x400
 80040f4:	4298      	cmp	r0, r3
 80040f6:	d003      	beq.n	8004100 <HAL_TIM_OC_Stop+0x3c>
 80040f8:	f503 6300 	add.w	r3, r3, #2048	@ 0x800
 80040fc:	4298      	cmp	r0, r3
 80040fe:	d10d      	bne.n	800411c <HAL_TIM_OC_Stop+0x58>
 8004100:	6a02      	ldr	r2, [r0, #32]
 8004102:	f241 1311 	movw	r3, #4369	@ 0x1111
 8004106:	421a      	tst	r2, r3
 8004108:	d108      	bne.n	800411c <HAL_TIM_OC_Stop+0x58>
 800410a:	6a02      	ldr	r2, [r0, #32]
 800410c:	f244 4344 	movw	r3, #17476	@ 0x4444
 8004110:	421a      	tst	r2, r3
 8004112:	bf02      	ittt	eq
 8004114:	6c43      	ldreq	r3, [r0, #68]	@ 0x44
 8004116:	f423 4300 	biceq.w	r3, r3, #32768	@ 0x8000
 800411a:	6443      	streq	r3, [r0, #68]	@ 0x44
 800411c:	6a02      	ldr	r2, [r0, #32]
 800411e:	f241 1311 	movw	r3, #4369	@ 0x1111
 8004122:	421a      	tst	r2, r3
 8004124:	d108      	bne.n	8004138 <HAL_TIM_OC_Stop+0x74>
 8004126:	6a02      	ldr	r2, [r0, #32]
 8004128:	f244 4344 	movw	r3, #17476	@ 0x4444
 800412c:	421a      	tst	r2, r3
 800412e:	bf02      	ittt	eq
 8004130:	6803      	ldreq	r3, [r0, #0]
 8004132:	f023 0301 	biceq.w	r3, r3, #1
 8004136:	6003      	streq	r3, [r0, #0]
 8004138:	2d08      	cmp	r5, #8
 800413a:	f04f 0301 	mov.w	r3, #1
 800413e:	d015      	beq.n	800416c <HAL_TIM_OC_Stop+0xa8>
 8004140:	d806      	bhi.n	8004150 <HAL_TIM_OC_Stop+0x8c>
 8004142:	b165      	cbz	r5, 800415e <HAL_TIM_OC_Stop+0x9a>
 8004144:	2d04      	cmp	r5, #4
 8004146:	d00e      	beq.n	8004166 <HAL_TIM_OC_Stop+0xa2>
 8004148:	2301      	movs	r3, #1
 800414a:	f884 3043 	strb.w	r3, [r4, #67]	@ 0x43
 800414e:	e008      	b.n	8004162 <HAL_TIM_OC_Stop+0x9e>
 8004150:	2d0c      	cmp	r5, #12
 8004152:	d00e      	beq.n	8004172 <HAL_TIM_OC_Stop+0xae>
 8004154:	2d10      	cmp	r5, #16
 8004156:	d1f7      	bne.n	8004148 <HAL_TIM_OC_Stop+0x84>
 8004158:	f884 3042 	strb.w	r3, [r4, #66]	@ 0x42
 800415c:	e001      	b.n	8004162 <HAL_TIM_OC_Stop+0x9e>
 800415e:	f884 303e 	strb.w	r3, [r4, #62]	@ 0x3e
 8004162:	2000      	movs	r0, #0
 8004164:	bd38      	pop	{r3, r4, r5, pc}
 8004166:	f884 303f 	strb.w	r3, [r4, #63]	@ 0x3f
 800416a:	e7fa      	b.n	8004162 <HAL_TIM_OC_Stop+0x9e>
 800416c:	f884 3040 	strb.w	r3, [r4, #64]	@ 0x40
 8004170:	e7f7      	b.n	8004162 <HAL_TIM_OC_Stop+0x9e>
 8004172:	f884 3041 	strb.w	r3, [r4, #65]	@ 0x41
 8004176:	e7f4      	b.n	8004162 <HAL_TIM_OC_Stop+0x9e>
 8004178:	40012c00 	.word	0x40012c00

0800417c <HAL_TIM_PWM_Stop>:
 800417c:	f7ff bfa2 	b.w	80040c4 <HAL_TIM_OC_Stop>

08004180 <HAL_TIM_OC_Start_IT>:
 8004180:	2908      	cmp	r1, #8
 8004182:	b508      	push	{r3, lr}
 8004184:	d018      	beq.n	80041b8 <HAL_TIM_OC_Start_IT+0x38>
 8004186:	d805      	bhi.n	8004194 <HAL_TIM_OC_Start_IT+0x14>
 8004188:	b159      	cbz	r1, 80041a2 <HAL_TIM_OC_Start_IT+0x22>
 800418a:	2904      	cmp	r1, #4
 800418c:	d011      	beq.n	80041b2 <HAL_TIM_OC_Start_IT+0x32>
 800418e:	f890 3043 	ldrb.w	r3, [r0, #67]	@ 0x43
 8004192:	e008      	b.n	80041a6 <HAL_TIM_OC_Start_IT+0x26>
 8004194:	290c      	cmp	r1, #12
 8004196:	d012      	beq.n	80041be <HAL_TIM_OC_Start_IT+0x3e>
 8004198:	2910      	cmp	r1, #16
 800419a:	d1f8      	bne.n	800418e <HAL_TIM_OC_Start_IT+0xe>
 800419c:	f890 3042 	ldrb.w	r3, [r0, #66]	@ 0x42
 80041a0:	e001      	b.n	80041a6 <HAL_TIM_OC_Start_IT+0x26>
 80041a2:	f890 303e 	ldrb.w	r3, [r0, #62]	@ 0x3e
 80041a6:	3b01      	subs	r3, #1
 80041a8:	bf18      	it	ne
 80041aa:	2301      	movne	r3, #1
 80041ac:	b153      	cbz	r3, 80041c4 <HAL_TIM_OC_Start_IT+0x44>
 80041ae:	2001      	movs	r0, #1
 80041b0:	e04e      	b.n	8004250 <HAL_TIM_OC_Start_IT+0xd0>
 80041b2:	f890 303f 	ldrb.w	r3, [r0, #63]	@ 0x3f
 80041b6:	e7f6      	b.n	80041a6 <HAL_TIM_OC_Start_IT+0x26>
 80041b8:	f890 3040 	ldrb.w	r3, [r0, #64]	@ 0x40
 80041bc:	e7f3      	b.n	80041a6 <HAL_TIM_OC_Start_IT+0x26>
 80041be:	f890 3041 	ldrb.w	r3, [r0, #65]	@ 0x41
 80041c2:	e7f0      	b.n	80041a6 <HAL_TIM_OC_Start_IT+0x26>
 80041c4:	2908      	cmp	r1, #8
 80041c6:	f04f 0302 	mov.w	r3, #2
 80041ca:	d049      	beq.n	8004260 <HAL_TIM_OC_Start_IT+0xe0>
 80041cc:	d806      	bhi.n	80041dc <HAL_TIM_OC_Start_IT+0x5c>
 80041ce:	b161      	cbz	r1, 80041ea <HAL_TIM_OC_Start_IT+0x6a>
 80041d0:	2904      	cmp	r1, #4
 80041d2:	d03e      	beq.n	8004252 <HAL_TIM_OC_Start_IT+0xd2>
 80041d4:	2302      	movs	r3, #2
 80041d6:	f880 3043 	strb.w	r3, [r0, #67]	@ 0x43
 80041da:	e7e8      	b.n	80041ae <HAL_TIM_OC_Start_IT+0x2e>
 80041dc:	290c      	cmp	r1, #12
 80041de:	d046      	beq.n	800426e <HAL_TIM_OC_Start_IT+0xee>
 80041e0:	2910      	cmp	r1, #16
 80041e2:	d1f7      	bne.n	80041d4 <HAL_TIM_OC_Start_IT+0x54>
 80041e4:	f880 3042 	strb.w	r3, [r0, #66]	@ 0x42
 80041e8:	e7e1      	b.n	80041ae <HAL_TIM_OC_Start_IT+0x2e>
 80041ea:	6802      	ldr	r2, [r0, #0]
 80041ec:	f880 303e 	strb.w	r3, [r0, #62]	@ 0x3e
 80041f0:	68d3      	ldr	r3, [r2, #12]
 80041f2:	f043 0302 	orr.w	r3, r3, #2
 80041f6:	60d3      	str	r3, [r2, #12]
 80041f8:	6800      	ldr	r0, [r0, #0]
 80041fa:	2201      	movs	r2, #1
 80041fc:	f7ff fec0 	bl	8003f80 <TIM_CCxChannelCmd>
 8004200:	4b2d      	ldr	r3, [pc, #180]	@ (80042b8 <HAL_TIM_OC_Start_IT+0x138>)
 8004202:	4298      	cmp	r0, r3
 8004204:	d013      	beq.n	800422e <HAL_TIM_OC_Start_IT+0xae>
 8004206:	f503 6300 	add.w	r3, r3, #2048	@ 0x800
 800420a:	4298      	cmp	r0, r3
 800420c:	d00f      	beq.n	800422e <HAL_TIM_OC_Start_IT+0xae>
 800420e:	f503 6340 	add.w	r3, r3, #3072	@ 0xc00
 8004212:	4298      	cmp	r0, r3
 8004214:	d00b      	beq.n	800422e <HAL_TIM_OC_Start_IT+0xae>
 8004216:	f503 6380 	add.w	r3, r3, #1024	@ 0x400
 800421a:	4298      	cmp	r0, r3
 800421c:	d007      	beq.n	800422e <HAL_TIM_OC_Start_IT+0xae>
 800421e:	f503 6380 	add.w	r3, r3, #1024	@ 0x400
 8004222:	4298      	cmp	r0, r3
 8004224:	d003      	beq.n	800422e <HAL_TIM_OC_Start_IT+0xae>
 8004226:	f503 6300 	add.w	r3, r3, #2048	@ 0x800
 800422a:	4298      	cmp	r0, r3
 800422c:	d126      	bne.n	800427c <HAL_TIM_OC_Start_IT+0xfc>
 800422e:	6c43      	ldr	r3, [r0, #68]	@ 0x44
 8004230:	f443 4300 	orr.w	r3, r3, #32768	@ 0x8000
 8004234:	6443      	str	r3, [r0, #68]	@ 0x44
 8004236:	4b20      	ldr	r3, [pc, #128]	@ (80042b8 <HAL_TIM_OC_Start_IT+0x138>)
 8004238:	4298      	cmp	r0, r3
 800423a:	d003      	beq.n	8004244 <HAL_TIM_OC_Start_IT+0xc4>
 800423c:	f503 6300 	add.w	r3, r3, #2048	@ 0x800
 8004240:	4298      	cmp	r0, r3
 8004242:	d12e      	bne.n	80042a2 <HAL_TIM_OC_Start_IT+0x122>
 8004244:	6882      	ldr	r2, [r0, #8]
 8004246:	4b1d      	ldr	r3, [pc, #116]	@ (80042bc <HAL_TIM_OC_Start_IT+0x13c>)
 8004248:	4013      	ands	r3, r2
 800424a:	2b06      	cmp	r3, #6
 800424c:	d12f      	bne.n	80042ae <HAL_TIM_OC_Start_IT+0x12e>
 800424e:	2000      	movs	r0, #0
 8004250:	bd08      	pop	{r3, pc}
 8004252:	6802      	ldr	r2, [r0, #0]
 8004254:	f880 303f 	strb.w	r3, [r0, #63]	@ 0x3f
 8004258:	68d3      	ldr	r3, [r2, #12]
 800425a:	f043 0304 	orr.w	r3, r3, #4
 800425e:	e7ca      	b.n	80041f6 <HAL_TIM_OC_Start_IT+0x76>
 8004260:	6802      	ldr	r2, [r0, #0]
 8004262:	f880 3040 	strb.w	r3, [r0, #64]	@ 0x40
 8004266:	68d3      	ldr	r3, [r2, #12]
 8004268:	f043 0308 	orr.w	r3, r3, #8
 800426c:	e7c3      	b.n	80041f6 <HAL_TIM_OC_Start_IT+0x76>
 800426e:	6802      	ldr	r2, [r0, #0]
 8004270:	f880 3041 	strb.w	r3, [r0, #65]	@ 0x41
 8004274:	68d3      	ldr	r3, [r2, #12]
 8004276:	f043 0310 	orr.w	r3, r3, #16
 800427a:	e7bc      	b.n	80041f6 <HAL_TIM_OC_Start_IT+0x76>
 800427c:	f1b0 4f80 	cmp.w	r0, #1073741824	@ 0x40000000
 8004280:	d0e0      	beq.n	8004244 <HAL_TIM_OC_Start_IT+0xc4>
 8004282:	4b0f      	ldr	r3, [pc, #60]	@ (80042c0 <HAL_TIM_OC_Start_IT+0x140>)
 8004284:	4298      	cmp	r0, r3
 8004286:	d0dd      	beq.n	8004244 <HAL_TIM_OC_Start_IT+0xc4>
 8004288:	f503 6380 	add.w	r3, r3, #1024	@ 0x400
 800428c:	4298      	cmp	r0, r3
 800428e:	d0d9      	beq.n	8004244 <HAL_TIM_OC_Start_IT+0xc4>
 8004290:	f503 6380 	add.w	r3, r3, #1024	@ 0x400
 8004294:	4298      	cmp	r0, r3
 8004296:	d0d5      	beq.n	8004244 <HAL_TIM_OC_Start_IT+0xc4>
 8004298:	6803      	ldr	r3, [r0, #0]
 800429a:	f043 0301 	orr.w	r3, r3, #1
 800429e:	6003      	str	r3, [r0, #0]
 80042a0:	e7d5      	b.n	800424e <HAL_TIM_OC_Start_IT+0xce>
 80042a2:	4b08      	ldr	r3, [pc, #32]	@ (80042c4 <HAL_TIM_OC_Start_IT+0x144>)
 80042a4:	4298      	cmp	r0, r3
 80042a6:	d0cd      	beq.n	8004244 <HAL_TIM_OC_Start_IT+0xc4>
 80042a8:	f503 5380 	add.w	r3, r3, #4096	@ 0x1000
 80042ac:	e7f2      	b.n	8004294 <HAL_TIM_OC_Start_IT+0x114>
 80042ae:	f5b3 3f80 	cmp.w	r3, #65536	@ 0x10000
 80042b2:	d1f1      	bne.n	8004298 <HAL_TIM_OC_Start_IT+0x118>
 80042b4:	e7cb      	b.n	800424e <HAL_TIM_OC_Start_IT+0xce>
 80042b6:	bf00      	nop
 80042b8:	40012c00 	.word	0x40012c00
 80042bc:	00010007 	.word	0x00010007
 80042c0:	40000400 	.word	0x40000400
 80042c4:	40014000 	.word	0x40014000

080042c8 <TIM_CCxNChannelCmd>:
 80042c8:	6a03      	ldr	r3, [r0, #32]
 80042ca:	b510      	push	{r4, lr}
 80042cc:	f001 010f 	and.w	r1, r1, #15
 80042d0:	2404      	movs	r4, #4
 80042d2:	408c      	lsls	r4, r1
 80042d4:	ea23 0304 	bic.w	r3, r3, r4
 80042d8:	6203      	str	r3, [r0, #32]
 80042da:	6a03      	ldr	r3, [r0, #32]
 80042dc:	408a      	lsls	r2, r1
 80042de:	431a      	orrs	r2, r3
 80042e0:	6202      	str	r2, [r0, #32]
 80042e2:	bd10      	pop	{r4, pc}

080042e4 <HAL_TIMEx_OCN_Start>:
 80042e4:	b508      	push	{r3, lr}
 80042e6:	b929      	cbnz	r1, 80042f4 <HAL_TIMEx_OCN_Start+0x10>
 80042e8:	f890 3044 	ldrb.w	r3, [r0, #68]	@ 0x44
 80042ec:	2b01      	cmp	r3, #1
 80042ee:	d01d      	beq.n	800432c <HAL_TIMEx_OCN_Start+0x48>
 80042f0:	2001      	movs	r0, #1
 80042f2:	e051      	b.n	8004398 <HAL_TIMEx_OCN_Start+0xb4>
 80042f4:	2904      	cmp	r1, #4
 80042f6:	d107      	bne.n	8004308 <HAL_TIMEx_OCN_Start+0x24>
 80042f8:	f890 3045 	ldrb.w	r3, [r0, #69]	@ 0x45
 80042fc:	2b01      	cmp	r3, #1
 80042fe:	d1f7      	bne.n	80042f0 <HAL_TIMEx_OCN_Start+0xc>
 8004300:	2302      	movs	r3, #2
 8004302:	f880 3045 	strb.w	r3, [r0, #69]	@ 0x45
 8004306:	e014      	b.n	8004332 <HAL_TIMEx_OCN_Start+0x4e>
 8004308:	2908      	cmp	r1, #8
 800430a:	d107      	bne.n	800431c <HAL_TIMEx_OCN_Start+0x38>
 800430c:	f890 3046 	ldrb.w	r3, [r0, #70]	@ 0x46
 8004310:	2b01      	cmp	r3, #1
 8004312:	d1ed      	bne.n	80042f0 <HAL_TIMEx_OCN_Start+0xc>
 8004314:	2302      	movs	r3, #2
 8004316:	f880 3046 	strb.w	r3, [r0, #70]	@ 0x46
 800431a:	e00a      	b.n	8004332 <HAL_TIMEx_OCN_Start+0x4e>
 800431c:	f890 3047 	ldrb.w	r3, [r0, #71]	@ 0x47
 8004320:	2b01      	cmp	r3, #1
 8004322:	d1e5      	bne.n	80042f0 <HAL_TIMEx_OCN_Start+0xc>
 8004324:	2302      	movs	r3, #2
 8004326:	f880 3047 	strb.w	r3, [r0, #71]	@ 0x47
 800432a:	e002      	b.n	8004332 <HAL_TIMEx_OCN_Start+0x4e>
 800432c:	2302      	movs	r3, #2
 800432e:	f880 3044 	strb.w	r3, [r0, #68]	@ 0x44
 8004332:	6800      	ldr	r0, [r0, #0]
 8004334:	2204      	movs	r2, #4
 8004336:	f7ff ffc7 	bl	80042c8 <TIM_CCxNChannelCmd>
 800433a:	6c43      	ldr	r3, [r0, #68]	@ 0x44
 800433c:	f443 4300 	orr.w	r3, r3, #32768	@ 0x8000
 8004340:	6443      	str	r3, [r0, #68]	@ 0x44
 8004342:	4b16      	ldr	r3, [pc, #88]	@ (800439c <HAL_TIMEx_OCN_Start+0xb8>)
 8004344:	4298      	cmp	r0, r3
 8004346:	d01a      	beq.n	800437e <HAL_TIMEx_OCN_Start+0x9a>
 8004348:	f1b0 4f80 	cmp.w	r0, #1073741824	@ 0x40000000
 800434c:	d017      	beq.n	800437e <HAL_TIMEx_OCN_Start+0x9a>
 800434e:	f5a3 3394 	sub.w	r3, r3, #75776	@ 0x12800
 8004352:	4298      	cmp	r0, r3
 8004354:	d013      	beq.n	800437e <HAL_TIMEx_OCN_Start+0x9a>
 8004356:	f503 6380 	add.w	r3, r3, #1024	@ 0x400
 800435a:	4298      	cmp	r0, r3
 800435c:	d00f      	beq.n	800437e <HAL_TIMEx_OCN_Start+0x9a>
 800435e:	f503 6380 	add.w	r3, r3, #1024	@ 0x400
 8004362:	4298      	cmp	r0, r3
 8004364:	d00b      	beq.n	800437e <HAL_TIMEx_OCN_Start+0x9a>
 8004366:	f503 3394 	add.w	r3, r3, #75776	@ 0x12800
 800436a:	4298      	cmp	r0, r3
 800436c:	d007      	beq.n	800437e <HAL_TIMEx_OCN_Start+0x9a>
 800436e:	f503 6340 	add.w	r3, r3, #3072	@ 0xc00
 8004372:	4298      	cmp	r0, r3
 8004374:	d003      	beq.n	800437e <HAL_TIMEx_OCN_Start+0x9a>
 8004376:	f503 5380 	add.w	r3, r3, #4096	@ 0x1000
 800437a:	4298      	cmp	r0, r3
 800437c:	d107      	bne.n	800438e <HAL_TIMEx_OCN_Start+0xaa>
 800437e:	6882      	ldr	r2, [r0, #8]
 8004380:	4b07      	ldr	r3, [pc, #28]	@ (80043a0 <HAL_TIMEx_OCN_Start+0xbc>)
 8004382:	4013      	ands	r3, r2
 8004384:	2b06      	cmp	r3, #6
 8004386:	d006      	beq.n	8004396 <HAL_TIMEx_OCN_Start+0xb2>
 8004388:	f5b3 3f80 	cmp.w	r3, #65536	@ 0x10000
 800438c:	d003      	beq.n	8004396 <HAL_TIMEx_OCN_Start+0xb2>
 800438e:	6803      	ldr	r3, [r0, #0]
 8004390:	f043 0301 	orr.w	r3, r3, #1
 8004394:	6003      	str	r3, [r0, #0]
 8004396:	2000      	movs	r0, #0
 8004398:	bd08      	pop	{r3, pc}
 800439a:	bf00      	nop
 800439c:	40012c00 	.word	0x40012c00
 80043a0:	00010007 	.word	0x00010007

080043a4 <HAL_TIMEx_OCN_Stop>:
 80043a4:	b538      	push	{r3, r4, r5, lr}
 80043a6:	4604      	mov	r4, r0
 80043a8:	6800      	ldr	r0, [r0, #0]
 80043aa:	2200      	movs	r2, #0
 80043ac:	460d      	mov	r5, r1
 80043ae:	f7ff ff8b 	bl	80042c8 <TIM_CCxNChannelCmd>
 80043b2:	6a02      	ldr	r2, [r0, #32]
 80043b4:	f241 1311 	movw	r3, #4369	@ 0x1111
 80043b8:	421a      	tst	r2, r3
 80043ba:	d108      	bne.n	80043ce <HAL_TIMEx_OCN_Stop+0x2a>
 80043bc:	6a02      	ldr	r2, [r0, #32]
 80043be:	f244 4344 	movw	r3, #17476	@ 0x4444
 80043c2:	421a      	tst	r2, r3
 80043c4:	bf02      	ittt	eq
 80043c6:	6c43      	ldreq	r3, [r0, #68]	@ 0x44
 80043c8:	f423 4300 	biceq.w	r3, r3, #32768	@ 0x8000
 80043cc:	6443      	streq	r3, [r0, #68]	@ 0x44
 80043ce:	6a02      	ldr	r2, [r0, #32]
 80043d0:	f241 1311 	movw	r3, #4369	@ 0x1111
 80043d4:	421a      	tst	r2, r3
 80043d6:	d108      	bne.n	80043ea <HAL_TIMEx_OCN_Stop+0x46>
 80043d8:	6a02      	ldr	r2, [r0, #32]
 80043da:	f244 4344 	movw	r3, #17476	@ 0x4444
 80043de:	421a      	tst	r2, r3
 80043e0:	bf02      	ittt	eq
 80043e2:	6803      	ldreq	r3, [r0, #0]
 80043e4:	f023 0301 	biceq.w	r3, r3, #1
 80043e8:	6003      	streq	r3, [r0, #0]
 80043ea:	2301      	movs	r3, #1
 80043ec:	b91d      	cbnz	r5, 80043f6 <HAL_TIMEx_OCN_Stop+0x52>
 80043ee:	f884 3044 	strb.w	r3, [r4, #68]	@ 0x44
 80043f2:	2000      	movs	r0, #0
 80043f4:	bd38      	pop	{r3, r4, r5, pc}
 80043f6:	2d04      	cmp	r5, #4
 80043f8:	d102      	bne.n	8004400 <HAL_TIMEx_OCN_Stop+0x5c>
 80043fa:	f884 3045 	strb.w	r3, [r4, #69]	@ 0x45
 80043fe:	e7f8      	b.n	80043f2 <HAL_TIMEx_OCN_Stop+0x4e>
 8004400:	2d08      	cmp	r5, #8
 8004402:	bf0c      	ite	eq
 8004404:	f884 3046 	strbeq.w	r3, [r4, #70]	@ 0x46
 8004408:	f884 3047 	strbne.w	r3, [r4, #71]	@ 0x47
 800440c:	e7f1      	b.n	80043f2 <HAL_TIMEx_OCN_Stop+0x4e>

0800440e <HAL_TIMEx_PWMN_Start>:
 800440e:	f7ff bf69 	b.w	80042e4 <HAL_TIMEx_OCN_Start>

08004412 <HAL_TIMEx_PWMN_Stop>:
 8004412:	f7ff bfc7 	b.w	80043a4 <HAL_TIMEx_OCN_Stop>
	...

08004418 <HAL_TIMEx_MasterConfigSynchronization>:
 8004418:	b530      	push	{r4, r5, lr}
 800441a:	f890 303c 	ldrb.w	r3, [r0, #60]	@ 0x3c
 800441e:	2b01      	cmp	r3, #1
 8004420:	4604      	mov	r4, r0
 8004422:	f04f 0002 	mov.w	r0, #2
 8004426:	d043      	beq.n	80044b0 <HAL_TIMEx_MasterConfigSynchronization+0x98>
 8004428:	6823      	ldr	r3, [r4, #0]
 800442a:	4d22      	ldr	r5, [pc, #136]	@ (80044b4 <HAL_TIMEx_MasterConfigSynchronization+0x9c>)
 800442c:	f884 003d 	strb.w	r0, [r4, #61]	@ 0x3d
 8004430:	42ab      	cmp	r3, r5
 8004432:	685a      	ldr	r2, [r3, #4]
 8004434:	6898      	ldr	r0, [r3, #8]
 8004436:	d007      	beq.n	8004448 <HAL_TIMEx_MasterConfigSynchronization+0x30>
 8004438:	f505 6500 	add.w	r5, r5, #2048	@ 0x800
 800443c:	42ab      	cmp	r3, r5
 800443e:	d003      	beq.n	8004448 <HAL_TIMEx_MasterConfigSynchronization+0x30>
 8004440:	f505 55e0 	add.w	r5, r5, #7168	@ 0x1c00
 8004444:	42ab      	cmp	r3, r5
 8004446:	d103      	bne.n	8004450 <HAL_TIMEx_MasterConfigSynchronization+0x38>
 8004448:	684d      	ldr	r5, [r1, #4]
 800444a:	f422 0270 	bic.w	r2, r2, #15728640	@ 0xf00000
 800444e:	432a      	orrs	r2, r5
 8004450:	680d      	ldr	r5, [r1, #0]
 8004452:	f022 7200 	bic.w	r2, r2, #33554432	@ 0x2000000
 8004456:	f022 0270 	bic.w	r2, r2, #112	@ 0x70
 800445a:	432a      	orrs	r2, r5
 800445c:	605a      	str	r2, [r3, #4]
 800445e:	4a15      	ldr	r2, [pc, #84]	@ (80044b4 <HAL_TIMEx_MasterConfigSynchronization+0x9c>)
 8004460:	4293      	cmp	r3, r2
 8004462:	d01a      	beq.n	800449a <HAL_TIMEx_MasterConfigSynchronization+0x82>
 8004464:	f1b3 4f80 	cmp.w	r3, #1073741824	@ 0x40000000
 8004468:	d017      	beq.n	800449a <HAL_TIMEx_MasterConfigSynchronization+0x82>
 800446a:	f5a2 3294 	sub.w	r2, r2, #75776	@ 0x12800
 800446e:	4293      	cmp	r3, r2
 8004470:	d013      	beq.n	800449a <HAL_TIMEx_MasterConfigSynchronization+0x82>
 8004472:	f502 6280 	add.w	r2, r2, #1024	@ 0x400
 8004476:	4293      	cmp	r3, r2
 8004478:	d00f      	beq.n	800449a <HAL_TIMEx_MasterConfigSynchronization+0x82>
 800447a:	f502 6280 	add.w	r2, r2, #1024	@ 0x400
 800447e:	4293      	cmp	r3, r2
 8004480:	d00b      	beq.n	800449a <HAL_TIMEx_MasterConfigSynchronization+0x82>
 8004482:	f502 3294 	add.w	r2, r2, #75776	@ 0x12800
 8004486:	4293      	cmp	r3, r2
 8004488:	d007      	beq.n	800449a <HAL_TIMEx_MasterConfigSynchronization+0x82>
 800448a:	f502 6240 	add.w	r2, r2, #3072	@ 0xc00
 800448e:	4293      	cmp	r3, r2
 8004490:	d003      	beq.n	800449a <HAL_TIMEx_MasterConfigSynchronization+0x82>
 8004492:	f502 5280 	add.w	r2, r2, #4096	@ 0x1000
 8004496:	4293      	cmp	r3, r2
 8004498:	d104      	bne.n	80044a4 <HAL_TIMEx_MasterConfigSynchronization+0x8c>
 800449a:	6889      	ldr	r1, [r1, #8]
 800449c:	f020 0280 	bic.w	r2, r0, #128	@ 0x80
 80044a0:	430a      	orrs	r2, r1
 80044a2:	609a      	str	r2, [r3, #8]
 80044a4:	2301      	movs	r3, #1
 80044a6:	2000      	movs	r0, #0
 80044a8:	f884 303d 	strb.w	r3, [r4, #61]	@ 0x3d
 80044ac:	f884 003c 	strb.w	r0, [r4, #60]	@ 0x3c
 80044b0:	bd30      	pop	{r4, r5, pc}
 80044b2:	bf00      	nop
 80044b4:	40012c00 	.word	0x40012c00

080044b8 <HAL_TIMEx_ConfigBreakDeadTime>:
 80044b8:	b510      	push	{r4, lr}
 80044ba:	f890 303c 	ldrb.w	r3, [r0, #60]	@ 0x3c
 80044be:	2b01      	cmp	r3, #1
 80044c0:	4602      	mov	r2, r0
 80044c2:	d043      	beq.n	800454c <HAL_TIMEx_ConfigBreakDeadTime+0x94>
 80044c4:	68cb      	ldr	r3, [r1, #12]
 80044c6:	6888      	ldr	r0, [r1, #8]
 80044c8:	4c21      	ldr	r4, [pc, #132]	@ (8004550 <HAL_TIMEx_ConfigBreakDeadTime+0x98>)
 80044ca:	f423 7340 	bic.w	r3, r3, #768	@ 0x300
 80044ce:	4303      	orrs	r3, r0
 80044d0:	6848      	ldr	r0, [r1, #4]
 80044d2:	f423 6380 	bic.w	r3, r3, #1024	@ 0x400
 80044d6:	4303      	orrs	r3, r0
 80044d8:	6808      	ldr	r0, [r1, #0]
 80044da:	f423 6300 	bic.w	r3, r3, #2048	@ 0x800
 80044de:	4303      	orrs	r3, r0
 80044e0:	6908      	ldr	r0, [r1, #16]
 80044e2:	f423 5380 	bic.w	r3, r3, #4096	@ 0x1000
 80044e6:	4303      	orrs	r3, r0
 80044e8:	6948      	ldr	r0, [r1, #20]
 80044ea:	f423 5300 	bic.w	r3, r3, #8192	@ 0x2000
 80044ee:	4303      	orrs	r3, r0
 80044f0:	6b08      	ldr	r0, [r1, #48]	@ 0x30
 80044f2:	f423 4380 	bic.w	r3, r3, #16384	@ 0x4000
 80044f6:	4303      	orrs	r3, r0
 80044f8:	6988      	ldr	r0, [r1, #24]
 80044fa:	f423 2370 	bic.w	r3, r3, #983040	@ 0xf0000
 80044fe:	ea43 4300 	orr.w	r3, r3, r0, lsl #16
 8004502:	69c8      	ldr	r0, [r1, #28]
 8004504:	f023 5380 	bic.w	r3, r3, #268435456	@ 0x10000000
 8004508:	4303      	orrs	r3, r0
 800450a:	6810      	ldr	r0, [r2, #0]
 800450c:	42a0      	cmp	r0, r4
 800450e:	d007      	beq.n	8004520 <HAL_TIMEx_ConfigBreakDeadTime+0x68>
 8004510:	f504 6400 	add.w	r4, r4, #2048	@ 0x800
 8004514:	42a0      	cmp	r0, r4
 8004516:	d003      	beq.n	8004520 <HAL_TIMEx_ConfigBreakDeadTime+0x68>
 8004518:	f504 54e0 	add.w	r4, r4, #7168	@ 0x1c00
 800451c:	42a0      	cmp	r0, r4
 800451e:	d110      	bne.n	8004542 <HAL_TIMEx_ConfigBreakDeadTime+0x8a>
 8004520:	6a8c      	ldr	r4, [r1, #40]	@ 0x28
 8004522:	f423 0370 	bic.w	r3, r3, #15728640	@ 0xf00000
 8004526:	ea43 5304 	orr.w	r3, r3, r4, lsl #20
 800452a:	6a0c      	ldr	r4, [r1, #32]
 800452c:	f023 7380 	bic.w	r3, r3, #16777216	@ 0x1000000
 8004530:	4323      	orrs	r3, r4
 8004532:	6a4c      	ldr	r4, [r1, #36]	@ 0x24
 8004534:	6ac9      	ldr	r1, [r1, #44]	@ 0x2c
 8004536:	f023 7300 	bic.w	r3, r3, #33554432	@ 0x2000000
 800453a:	4323      	orrs	r3, r4
 800453c:	f023 5300 	bic.w	r3, r3, #536870912	@ 0x20000000
 8004540:	430b      	orrs	r3, r1
 8004542:	6443      	str	r3, [r0, #68]	@ 0x44
 8004544:	2000      	movs	r0, #0
 8004546:	f882 003c 	strb.w	r0, [r2, #60]	@ 0x3c
 800454a:	bd10      	pop	{r4, pc}
 800454c:	2002      	movs	r0, #2
 800454e:	e7fc      	b.n	800454a <HAL_TIMEx_ConfigBreakDeadTime+0x92>
 8004550:	40012c00 	.word	0x40012c00

08004554 <HAL_TIMEx_CommutCallback>:
 8004554:	4770      	bx	lr

08004556 <HAL_TIMEx_BreakCallback>:
 8004556:	4770      	bx	lr

08004558 <HAL_TIMEx_Break2Callback>:
 8004558:	4770      	bx	lr

0800455a <HAL_TIMEx_EncoderIndexCallback>:
 800455a:	4770      	bx	lr

0800455c <HAL_TIMEx_DirectionChangeCallback>:
 800455c:	4770      	bx	lr

0800455e <HAL_TIMEx_IndexErrorCallback>:
 800455e:	4770      	bx	lr

08004560 <HAL_TIMEx_TransitionErrorCallback>:
 8004560:	4770      	bx	lr
	...

08004564 <UART_EndRxTransfer>:
 8004564:	b510      	push	{r4, lr}
 8004566:	6802      	ldr	r2, [r0, #0]
 8004568:	e852 3f00 	ldrex	r3, [r2]
 800456c:	f423 7390 	bic.w	r3, r3, #288	@ 0x120
 8004570:	e842 3100 	strex	r1, r3, [r2]
 8004574:	6802      	ldr	r2, [r0, #0]
 8004576:	2900      	cmp	r1, #0
 8004578:	d1f5      	bne.n	8004566 <UART_EndRxTransfer+0x2>
 800457a:	4c0f      	ldr	r4, [pc, #60]	@ (80045b8 <UART_EndRxTransfer+0x54>)
 800457c:	f102 0308 	add.w	r3, r2, #8
 8004580:	e853 3f00 	ldrex	r3, [r3]
 8004584:	4023      	ands	r3, r4
 8004586:	f102 0c08 	add.w	ip, r2, #8
 800458a:	e84c 3100 	strex	r1, r3, [ip]
 800458e:	2900      	cmp	r1, #0
 8004590:	d1f4      	bne.n	800457c <UART_EndRxTransfer+0x18>
 8004592:	6ec3      	ldr	r3, [r0, #108]	@ 0x6c
 8004594:	2b01      	cmp	r3, #1
 8004596:	d107      	bne.n	80045a8 <UART_EndRxTransfer+0x44>
 8004598:	e852 3f00 	ldrex	r3, [r2]
 800459c:	f023 0310 	bic.w	r3, r3, #16
 80045a0:	e842 3100 	strex	r1, r3, [r2]
 80045a4:	2900      	cmp	r1, #0
 80045a6:	d1f7      	bne.n	8004598 <UART_EndRxTransfer+0x34>
 80045a8:	2320      	movs	r3, #32
 80045aa:	f8c0 308c 	str.w	r3, [r0, #140]	@ 0x8c
 80045ae:	2300      	movs	r3, #0
 80045b0:	66c3      	str	r3, [r0, #108]	@ 0x6c
 80045b2:	6743      	str	r3, [r0, #116]	@ 0x74
 80045b4:	bd10      	pop	{r4, pc}
 80045b6:	bf00      	nop
 80045b8:	effffffe 	.word	0xeffffffe

080045bc <UART_SetConfig>:
 80045bc:	b538      	push	{r3, r4, r5, lr}
 80045be:	4604      	mov	r4, r0
 80045c0:	69c0      	ldr	r0, [r0, #28]
 80045c2:	6921      	ldr	r1, [r4, #16]
 80045c4:	68a2      	ldr	r2, [r4, #8]
 80045c6:	6823      	ldr	r3, [r4, #0]
 80045c8:	430a      	orrs	r2, r1
 80045ca:	6961      	ldr	r1, [r4, #20]
 80045cc:	681d      	ldr	r5, [r3, #0]
 80045ce:	430a      	orrs	r2, r1
 80045d0:	4985      	ldr	r1, [pc, #532]	@ (80047e8 <UART_SetConfig+0x22c>)
 80045d2:	4302      	orrs	r2, r0
 80045d4:	4029      	ands	r1, r5
 80045d6:	430a      	orrs	r2, r1
 80045d8:	601a      	str	r2, [r3, #0]
 80045da:	685a      	ldr	r2, [r3, #4]
 80045dc:	68e1      	ldr	r1, [r4, #12]
 80045de:	f422 5240 	bic.w	r2, r2, #12288	@ 0x3000
 80045e2:	430a      	orrs	r2, r1
 80045e4:	605a      	str	r2, [r3, #4]
 80045e6:	4a81      	ldr	r2, [pc, #516]	@ (80047ec <UART_SetConfig+0x230>)
 80045e8:	69a1      	ldr	r1, [r4, #24]
 80045ea:	4293      	cmp	r3, r2
 80045ec:	bf1c      	itt	ne
 80045ee:	6a22      	ldrne	r2, [r4, #32]
 80045f0:	4311      	orrne	r1, r2
 80045f2:	689a      	ldr	r2, [r3, #8]
 80045f4:	f022 426e 	bic.w	r2, r2, #3992977408	@ 0xee000000
 80045f8:	f422 6230 	bic.w	r2, r2, #2816	@ 0xb00
 80045fc:	430a      	orrs	r2, r1
 80045fe:	609a      	str	r2, [r3, #8]
 8004600:	6ada      	ldr	r2, [r3, #44]	@ 0x2c
 8004602:	6a61      	ldr	r1, [r4, #36]	@ 0x24
 8004604:	f022 020f 	bic.w	r2, r2, #15
 8004608:	430a      	orrs	r2, r1
 800460a:	62da      	str	r2, [r3, #44]	@ 0x2c
 800460c:	4a78      	ldr	r2, [pc, #480]	@ (80047f0 <UART_SetConfig+0x234>)
 800460e:	4293      	cmp	r3, r2
 8004610:	d130      	bne.n	8004674 <UART_SetConfig+0xb8>
 8004612:	4b78      	ldr	r3, [pc, #480]	@ (80047f4 <UART_SetConfig+0x238>)
 8004614:	f8d3 3088 	ldr.w	r3, [r3, #136]	@ 0x88
 8004618:	f003 0303 	and.w	r3, r3, #3
 800461c:	2b02      	cmp	r3, #2
 800461e:	f000 80da 	beq.w	80047d6 <UART_SetConfig+0x21a>
 8004622:	2b03      	cmp	r3, #3
 8004624:	f000 80ca 	beq.w	80047bc <UART_SetConfig+0x200>
 8004628:	2b01      	cmp	r3, #1
 800462a:	f000 80ce 	beq.w	80047ca <UART_SetConfig+0x20e>
 800462e:	f5b0 4f00 	cmp.w	r0, #32768	@ 0x8000
 8004632:	f040 80d5 	bne.w	80047e0 <UART_SetConfig+0x224>
 8004636:	f7fe feef 	bl	8003418 <HAL_RCC_GetPCLK2Freq>
 800463a:	2800      	cmp	r0, #0
 800463c:	d077      	beq.n	800472e <UART_SetConfig+0x172>
 800463e:	6861      	ldr	r1, [r4, #4]
 8004640:	4b6d      	ldr	r3, [pc, #436]	@ (80047f8 <UART_SetConfig+0x23c>)
 8004642:	6a62      	ldr	r2, [r4, #36]	@ 0x24
 8004644:	f833 2012 	ldrh.w	r2, [r3, r2, lsl #1]
 8004648:	fbb0 f2f2 	udiv	r2, r0, r2
 800464c:	084b      	lsrs	r3, r1, #1
 800464e:	eb03 0342 	add.w	r3, r3, r2, lsl #1
 8004652:	f64f 72ef 	movw	r2, #65519	@ 0xffef
 8004656:	fbb3 f3f1 	udiv	r3, r3, r1
 800465a:	f1a3 0110 	sub.w	r1, r3, #16
 800465e:	4291      	cmp	r1, r2
 8004660:	d820      	bhi.n	80046a4 <UART_SetConfig+0xe8>
 8004662:	f023 020f 	bic.w	r2, r3, #15
 8004666:	6821      	ldr	r1, [r4, #0]
 8004668:	b292      	uxth	r2, r2
 800466a:	f3c3 0342 	ubfx	r3, r3, #1, #3
 800466e:	4313      	orrs	r3, r2
 8004670:	60cb      	str	r3, [r1, #12]
 8004672:	e05c      	b.n	800472e <UART_SetConfig+0x172>
 8004674:	4a61      	ldr	r2, [pc, #388]	@ (80047fc <UART_SetConfig+0x240>)
 8004676:	4293      	cmp	r3, r2
 8004678:	d116      	bne.n	80046a8 <UART_SetConfig+0xec>
 800467a:	4b5e      	ldr	r3, [pc, #376]	@ (80047f4 <UART_SetConfig+0x238>)
 800467c:	f8d3 3088 	ldr.w	r3, [r3, #136]	@ 0x88
 8004680:	f003 030c 	and.w	r3, r3, #12
 8004684:	2b08      	cmp	r3, #8
 8004686:	f000 80a6 	beq.w	80047d6 <UART_SetConfig+0x21a>
 800468a:	d808      	bhi.n	800469e <UART_SetConfig+0xe2>
 800468c:	2b00      	cmp	r3, #0
 800468e:	f040 809c 	bne.w	80047ca <UART_SetConfig+0x20e>
 8004692:	f5b0 4f00 	cmp.w	r0, #32768	@ 0x8000
 8004696:	d17a      	bne.n	800478e <UART_SetConfig+0x1d2>
 8004698:	f7fe feac 	bl	80033f4 <HAL_RCC_GetPCLK1Freq>
 800469c:	e7cd      	b.n	800463a <UART_SetConfig+0x7e>
 800469e:	2b0c      	cmp	r3, #12
 80046a0:	f000 808c 	beq.w	80047bc <UART_SetConfig+0x200>
 80046a4:	2001      	movs	r0, #1
 80046a6:	e043      	b.n	8004730 <UART_SetConfig+0x174>
 80046a8:	4a55      	ldr	r2, [pc, #340]	@ (8004800 <UART_SetConfig+0x244>)
 80046aa:	4293      	cmp	r3, r2
 80046ac:	d10a      	bne.n	80046c4 <UART_SetConfig+0x108>
 80046ae:	4b51      	ldr	r3, [pc, #324]	@ (80047f4 <UART_SetConfig+0x238>)
 80046b0:	f8d3 3088 	ldr.w	r3, [r3, #136]	@ 0x88
 80046b4:	f003 0330 	and.w	r3, r3, #48	@ 0x30
 80046b8:	2b20      	cmp	r3, #32
 80046ba:	f000 808c 	beq.w	80047d6 <UART_SetConfig+0x21a>
 80046be:	d9e5      	bls.n	800468c <UART_SetConfig+0xd0>
 80046c0:	2b30      	cmp	r3, #48	@ 0x30
 80046c2:	e7ed      	b.n	80046a0 <UART_SetConfig+0xe4>
 80046c4:	4a4f      	ldr	r2, [pc, #316]	@ (8004804 <UART_SetConfig+0x248>)
 80046c6:	4293      	cmp	r3, r2
 80046c8:	d109      	bne.n	80046de <UART_SetConfig+0x122>
 80046ca:	4b4a      	ldr	r3, [pc, #296]	@ (80047f4 <UART_SetConfig+0x238>)
 80046cc:	f8d3 3088 	ldr.w	r3, [r3, #136]	@ 0x88
 80046d0:	f003 03c0 	and.w	r3, r3, #192	@ 0xc0
 80046d4:	2b80      	cmp	r3, #128	@ 0x80
 80046d6:	d07e      	beq.n	80047d6 <UART_SetConfig+0x21a>
 80046d8:	d9d8      	bls.n	800468c <UART_SetConfig+0xd0>
 80046da:	2bc0      	cmp	r3, #192	@ 0xc0
 80046dc:	e7e0      	b.n	80046a0 <UART_SetConfig+0xe4>
 80046de:	4a4a      	ldr	r2, [pc, #296]	@ (8004808 <UART_SetConfig+0x24c>)
 80046e0:	4293      	cmp	r3, r2
 80046e2:	d10b      	bne.n	80046fc <UART_SetConfig+0x140>
 80046e4:	4b43      	ldr	r3, [pc, #268]	@ (80047f4 <UART_SetConfig+0x238>)
 80046e6:	f8d3 3088 	ldr.w	r3, [r3, #136]	@ 0x88
 80046ea:	f403 7340 	and.w	r3, r3, #768	@ 0x300
 80046ee:	f5b3 7f00 	cmp.w	r3, #512	@ 0x200
 80046f2:	d070      	beq.n	80047d6 <UART_SetConfig+0x21a>
 80046f4:	d9ca      	bls.n	800468c <UART_SetConfig+0xd0>
 80046f6:	f5b3 7f40 	cmp.w	r3, #768	@ 0x300
 80046fa:	e7d1      	b.n	80046a0 <UART_SetConfig+0xe4>
 80046fc:	4a3b      	ldr	r2, [pc, #236]	@ (80047ec <UART_SetConfig+0x230>)
 80046fe:	4293      	cmp	r3, r2
 8004700:	d1d0      	bne.n	80046a4 <UART_SetConfig+0xe8>
 8004702:	4b3c      	ldr	r3, [pc, #240]	@ (80047f4 <UART_SetConfig+0x238>)
 8004704:	f8d3 3088 	ldr.w	r3, [r3, #136]	@ 0x88
 8004708:	f403 6340 	and.w	r3, r3, #3072	@ 0xc00
 800470c:	f5b3 6f00 	cmp.w	r3, #2048	@ 0x800
 8004710:	d015      	beq.n	800473e <UART_SetConfig+0x182>
 8004712:	d803      	bhi.n	800471c <UART_SetConfig+0x160>
 8004714:	b943      	cbnz	r3, 8004728 <UART_SetConfig+0x16c>
 8004716:	f7fe fe6d 	bl	80033f4 <HAL_RCC_GetPCLK1Freq>
 800471a:	e007      	b.n	800472c <UART_SetConfig+0x170>
 800471c:	f5b3 6f40 	cmp.w	r3, #3072	@ 0xc00
 8004720:	d1c0      	bne.n	80046a4 <UART_SetConfig+0xe8>
 8004722:	f44f 4000 	mov.w	r0, #32768	@ 0x8000
 8004726:	e00b      	b.n	8004740 <UART_SetConfig+0x184>
 8004728:	f7fe fd3a 	bl	80031a0 <HAL_RCC_GetSysClockFreq>
 800472c:	b940      	cbnz	r0, 8004740 <UART_SetConfig+0x184>
 800472e:	2000      	movs	r0, #0
 8004730:	f04f 1301 	mov.w	r3, #65537	@ 0x10001
 8004734:	66a3      	str	r3, [r4, #104]	@ 0x68
 8004736:	2300      	movs	r3, #0
 8004738:	e9c4 331d 	strd	r3, r3, [r4, #116]	@ 0x74
 800473c:	bd38      	pop	{r3, r4, r5, pc}
 800473e:	4833      	ldr	r0, [pc, #204]	@ (800480c <UART_SetConfig+0x250>)
 8004740:	6865      	ldr	r5, [r4, #4]
 8004742:	4b2d      	ldr	r3, [pc, #180]	@ (80047f8 <UART_SetConfig+0x23c>)
 8004744:	6a62      	ldr	r2, [r4, #36]	@ 0x24
 8004746:	eb05 0145 	add.w	r1, r5, r5, lsl #1
 800474a:	f833 2012 	ldrh.w	r2, [r3, r2, lsl #1]
 800474e:	fbb0 f3f2 	udiv	r3, r0, r2
 8004752:	4299      	cmp	r1, r3
 8004754:	d8a6      	bhi.n	80046a4 <UART_SetConfig+0xe8>
 8004756:	ebb3 3f05 	cmp.w	r3, r5, lsl #12
 800475a:	d8a3      	bhi.n	80046a4 <UART_SetConfig+0xe8>
 800475c:	2300      	movs	r3, #0
 800475e:	4619      	mov	r1, r3
 8004760:	f7fb fd5a 	bl	8000218 <__aeabi_uldivmod>
 8004764:	0209      	lsls	r1, r1, #8
 8004766:	ea41 6110 	orr.w	r1, r1, r0, lsr #24
 800476a:	086b      	lsrs	r3, r5, #1
 800476c:	0200      	lsls	r0, r0, #8
 800476e:	18c0      	adds	r0, r0, r3
 8004770:	462a      	mov	r2, r5
 8004772:	f04f 0300 	mov.w	r3, #0
 8004776:	f141 0100 	adc.w	r1, r1, #0
 800477a:	f7fb fd4d 	bl	8000218 <__aeabi_uldivmod>
 800477e:	4b24      	ldr	r3, [pc, #144]	@ (8004810 <UART_SetConfig+0x254>)
 8004780:	f5a0 7240 	sub.w	r2, r0, #768	@ 0x300
 8004784:	429a      	cmp	r2, r3
 8004786:	d88d      	bhi.n	80046a4 <UART_SetConfig+0xe8>
 8004788:	6823      	ldr	r3, [r4, #0]
 800478a:	60d8      	str	r0, [r3, #12]
 800478c:	e7cf      	b.n	800472e <UART_SetConfig+0x172>
 800478e:	f7fe fe31 	bl	80033f4 <HAL_RCC_GetPCLK1Freq>
 8004792:	2800      	cmp	r0, #0
 8004794:	d0cb      	beq.n	800472e <UART_SetConfig+0x172>
 8004796:	6863      	ldr	r3, [r4, #4]
 8004798:	6a61      	ldr	r1, [r4, #36]	@ 0x24
 800479a:	4a17      	ldr	r2, [pc, #92]	@ (80047f8 <UART_SetConfig+0x23c>)
 800479c:	f832 2011 	ldrh.w	r2, [r2, r1, lsl #1]
 80047a0:	fbb0 f0f2 	udiv	r0, r0, r2
 80047a4:	eb00 0053 	add.w	r0, r0, r3, lsr #1
 80047a8:	fbb0 f0f3 	udiv	r0, r0, r3
 80047ac:	f64f 73ef 	movw	r3, #65519	@ 0xffef
 80047b0:	f1a0 0210 	sub.w	r2, r0, #16
 80047b4:	e7e6      	b.n	8004784 <UART_SetConfig+0x1c8>
 80047b6:	f7fe fcf3 	bl	80031a0 <HAL_RCC_GetSysClockFreq>
 80047ba:	e7ea      	b.n	8004792 <UART_SetConfig+0x1d6>
 80047bc:	f5b0 4f00 	cmp.w	r0, #32768	@ 0x8000
 80047c0:	f43f af3d 	beq.w	800463e <UART_SetConfig+0x82>
 80047c4:	f44f 4000 	mov.w	r0, #32768	@ 0x8000
 80047c8:	e7e5      	b.n	8004796 <UART_SetConfig+0x1da>
 80047ca:	f5b0 4f00 	cmp.w	r0, #32768	@ 0x8000
 80047ce:	d1f2      	bne.n	80047b6 <UART_SetConfig+0x1fa>
 80047d0:	f7fe fce6 	bl	80031a0 <HAL_RCC_GetSysClockFreq>
 80047d4:	e731      	b.n	800463a <UART_SetConfig+0x7e>
 80047d6:	f5b0 4f00 	cmp.w	r0, #32768	@ 0x8000
 80047da:	480c      	ldr	r0, [pc, #48]	@ (800480c <UART_SetConfig+0x250>)
 80047dc:	d1db      	bne.n	8004796 <UART_SetConfig+0x1da>
 80047de:	e72e      	b.n	800463e <UART_SetConfig+0x82>
 80047e0:	f7fe fe1a 	bl	8003418 <HAL_RCC_GetPCLK2Freq>
 80047e4:	e7d5      	b.n	8004792 <UART_SetConfig+0x1d6>
 80047e6:	bf00      	nop
 80047e8:	cfff69f3 	.word	0xcfff69f3
 80047ec:	40008000 	.word	0x40008000
 80047f0:	40013800 	.word	0x40013800
 80047f4:	40021000 	.word	0x40021000
 80047f8:	08004c00 	.word	0x08004c00
 80047fc:	40004400 	.word	0x40004400
 8004800:	40004800 	.word	0x40004800
 8004804:	40004c00 	.word	0x40004c00
 8004808:	40005000 	.word	0x40005000
 800480c:	00f42400 	.word	0x00f42400
 8004810:	000ffcff 	.word	0x000ffcff

08004814 <UART_AdvFeatureConfig>:
 8004814:	6a83      	ldr	r3, [r0, #40]	@ 0x28
 8004816:	071a      	lsls	r2, r3, #28
 8004818:	b510      	push	{r4, lr}
 800481a:	d506      	bpl.n	800482a <UART_AdvFeatureConfig+0x16>
 800481c:	6801      	ldr	r1, [r0, #0]
 800481e:	6b84      	ldr	r4, [r0, #56]	@ 0x38
 8004820:	684a      	ldr	r2, [r1, #4]
 8004822:	f422 4200 	bic.w	r2, r2, #32768	@ 0x8000
 8004826:	4322      	orrs	r2, r4
 8004828:	604a      	str	r2, [r1, #4]
 800482a:	07dc      	lsls	r4, r3, #31
 800482c:	d506      	bpl.n	800483c <UART_AdvFeatureConfig+0x28>
 800482e:	6801      	ldr	r1, [r0, #0]
 8004830:	6ac4      	ldr	r4, [r0, #44]	@ 0x2c
 8004832:	684a      	ldr	r2, [r1, #4]
 8004834:	f422 3200 	bic.w	r2, r2, #131072	@ 0x20000
 8004838:	4322      	orrs	r2, r4
 800483a:	604a      	str	r2, [r1, #4]
 800483c:	0799      	lsls	r1, r3, #30
 800483e:	d506      	bpl.n	800484e <UART_AdvFeatureConfig+0x3a>
 8004840:	6801      	ldr	r1, [r0, #0]
 8004842:	6b04      	ldr	r4, [r0, #48]	@ 0x30
 8004844:	684a      	ldr	r2, [r1, #4]
 8004846:	f422 3280 	bic.w	r2, r2, #65536	@ 0x10000
 800484a:	4322      	orrs	r2, r4
 800484c:	604a      	str	r2, [r1, #4]
 800484e:	075a      	lsls	r2, r3, #29
 8004850:	d506      	bpl.n	8004860 <UART_AdvFeatureConfig+0x4c>
 8004852:	6801      	ldr	r1, [r0, #0]
 8004854:	6b44      	ldr	r4, [r0, #52]	@ 0x34
 8004856:	684a      	ldr	r2, [r1, #4]
 8004858:	f422 2280 	bic.w	r2, r2, #262144	@ 0x40000
 800485c:	4322      	orrs	r2, r4
 800485e:	604a      	str	r2, [r1, #4]
 8004860:	06dc      	lsls	r4, r3, #27
 8004862:	d506      	bpl.n	8004872 <UART_AdvFeatureConfig+0x5e>
 8004864:	6801      	ldr	r1, [r0, #0]
 8004866:	6bc4      	ldr	r4, [r0, #60]	@ 0x3c
 8004868:	688a      	ldr	r2, [r1, #8]
 800486a:	f422 5280 	bic.w	r2, r2, #4096	@ 0x1000
 800486e:	4322      	orrs	r2, r4
 8004870:	608a      	str	r2, [r1, #8]
 8004872:	0699      	lsls	r1, r3, #26
 8004874:	d506      	bpl.n	8004884 <UART_AdvFeatureConfig+0x70>
 8004876:	6801      	ldr	r1, [r0, #0]
 8004878:	6c04      	ldr	r4, [r0, #64]	@ 0x40
 800487a:	688a      	ldr	r2, [r1, #8]
 800487c:	f422 5200 	bic.w	r2, r2, #8192	@ 0x2000
 8004880:	4322      	orrs	r2, r4
 8004882:	608a      	str	r2, [r1, #8]
 8004884:	065a      	lsls	r2, r3, #25
 8004886:	d50f      	bpl.n	80048a8 <UART_AdvFeatureConfig+0x94>
 8004888:	6801      	ldr	r1, [r0, #0]
 800488a:	6c44      	ldr	r4, [r0, #68]	@ 0x44
 800488c:	684a      	ldr	r2, [r1, #4]
 800488e:	f422 1280 	bic.w	r2, r2, #1048576	@ 0x100000
 8004892:	4322      	orrs	r2, r4
 8004894:	f5b4 1f80 	cmp.w	r4, #1048576	@ 0x100000
 8004898:	604a      	str	r2, [r1, #4]
 800489a:	d105      	bne.n	80048a8 <UART_AdvFeatureConfig+0x94>
 800489c:	684a      	ldr	r2, [r1, #4]
 800489e:	6c84      	ldr	r4, [r0, #72]	@ 0x48
 80048a0:	f422 02c0 	bic.w	r2, r2, #6291456	@ 0x600000
 80048a4:	4322      	orrs	r2, r4
 80048a6:	604a      	str	r2, [r1, #4]
 80048a8:	061b      	lsls	r3, r3, #24
 80048aa:	d506      	bpl.n	80048ba <UART_AdvFeatureConfig+0xa6>
 80048ac:	6802      	ldr	r2, [r0, #0]
 80048ae:	6cc1      	ldr	r1, [r0, #76]	@ 0x4c
 80048b0:	6853      	ldr	r3, [r2, #4]
 80048b2:	f423 2300 	bic.w	r3, r3, #524288	@ 0x80000
 80048b6:	430b      	orrs	r3, r1
 80048b8:	6053      	str	r3, [r2, #4]
 80048ba:	bd10      	pop	{r4, pc}

080048bc <UART_WaitOnFlagUntilTimeout>:
 80048bc:	e92d 43f8 	stmdb	sp!, {r3, r4, r5, r6, r7, r8, r9, lr}
 80048c0:	f8dd 9020 	ldr.w	r9, [sp, #32]
 80048c4:	4604      	mov	r4, r0
 80048c6:	460d      	mov	r5, r1
 80048c8:	4617      	mov	r7, r2
 80048ca:	4698      	mov	r8, r3
 80048cc:	6822      	ldr	r2, [r4, #0]
 80048ce:	69d3      	ldr	r3, [r2, #28]
 80048d0:	ea35 0303 	bics.w	r3, r5, r3
 80048d4:	bf0c      	ite	eq
 80048d6:	2301      	moveq	r3, #1
 80048d8:	2300      	movne	r3, #0
 80048da:	42bb      	cmp	r3, r7
 80048dc:	d001      	beq.n	80048e2 <UART_WaitOnFlagUntilTimeout+0x26>
 80048de:	2000      	movs	r0, #0
 80048e0:	e022      	b.n	8004928 <UART_WaitOnFlagUntilTimeout+0x6c>
 80048e2:	f1b9 3fff 	cmp.w	r9, #4294967295
 80048e6:	d0f2      	beq.n	80048ce <UART_WaitOnFlagUntilTimeout+0x12>
 80048e8:	f7fc fd88 	bl	80013fc <HAL_GetTick>
 80048ec:	eba0 0008 	sub.w	r0, r0, r8
 80048f0:	4548      	cmp	r0, r9
 80048f2:	d829      	bhi.n	8004948 <UART_WaitOnFlagUntilTimeout+0x8c>
 80048f4:	f1b9 0f00 	cmp.w	r9, #0
 80048f8:	d026      	beq.n	8004948 <UART_WaitOnFlagUntilTimeout+0x8c>
 80048fa:	6821      	ldr	r1, [r4, #0]
 80048fc:	680b      	ldr	r3, [r1, #0]
 80048fe:	075a      	lsls	r2, r3, #29
 8004900:	d5e4      	bpl.n	80048cc <UART_WaitOnFlagUntilTimeout+0x10>
 8004902:	2d80      	cmp	r5, #128	@ 0x80
 8004904:	d0e2      	beq.n	80048cc <UART_WaitOnFlagUntilTimeout+0x10>
 8004906:	2d40      	cmp	r5, #64	@ 0x40
 8004908:	d0e0      	beq.n	80048cc <UART_WaitOnFlagUntilTimeout+0x10>
 800490a:	69ce      	ldr	r6, [r1, #28]
 800490c:	f016 0608 	ands.w	r6, r6, #8
 8004910:	d00c      	beq.n	800492c <UART_WaitOnFlagUntilTimeout+0x70>
 8004912:	2508      	movs	r5, #8
 8004914:	4620      	mov	r0, r4
 8004916:	620d      	str	r5, [r1, #32]
 8004918:	f7ff fe24 	bl	8004564 <UART_EndRxTransfer>
 800491c:	2300      	movs	r3, #0
 800491e:	f8c4 5090 	str.w	r5, [r4, #144]	@ 0x90
 8004922:	f884 3084 	strb.w	r3, [r4, #132]	@ 0x84
 8004926:	2001      	movs	r0, #1
 8004928:	e8bd 83f8 	ldmia.w	sp!, {r3, r4, r5, r6, r7, r8, r9, pc}
 800492c:	69cb      	ldr	r3, [r1, #28]
 800492e:	051b      	lsls	r3, r3, #20
 8004930:	d5cc      	bpl.n	80048cc <UART_WaitOnFlagUntilTimeout+0x10>
 8004932:	f44f 6300 	mov.w	r3, #2048	@ 0x800
 8004936:	620b      	str	r3, [r1, #32]
 8004938:	4620      	mov	r0, r4
 800493a:	f7ff fe13 	bl	8004564 <UART_EndRxTransfer>
 800493e:	2320      	movs	r3, #32
 8004940:	f8c4 3090 	str.w	r3, [r4, #144]	@ 0x90
 8004944:	f884 6084 	strb.w	r6, [r4, #132]	@ 0x84
 8004948:	2003      	movs	r0, #3
 800494a:	e7ed      	b.n	8004928 <UART_WaitOnFlagUntilTimeout+0x6c>

0800494c <UART_CheckIdleState>:
 800494c:	b573      	push	{r0, r1, r4, r5, r6, lr}
 800494e:	4604      	mov	r4, r0
 8004950:	2600      	movs	r6, #0
 8004952:	f8c0 6090 	str.w	r6, [r0, #144]	@ 0x90
 8004956:	f7fc fd51 	bl	80013fc <HAL_GetTick>
 800495a:	6823      	ldr	r3, [r4, #0]
 800495c:	681b      	ldr	r3, [r3, #0]
 800495e:	071a      	lsls	r2, r3, #28
 8004960:	4605      	mov	r5, r0
 8004962:	d51c      	bpl.n	800499e <UART_CheckIdleState+0x52>
 8004964:	f06f 437e 	mvn.w	r3, #4261412864	@ 0xfe000000
 8004968:	9300      	str	r3, [sp, #0]
 800496a:	4632      	mov	r2, r6
 800496c:	4603      	mov	r3, r0
 800496e:	f44f 1100 	mov.w	r1, #2097152	@ 0x200000
 8004972:	4620      	mov	r0, r4
 8004974:	f7ff ffa2 	bl	80048bc <UART_WaitOnFlagUntilTimeout>
 8004978:	b188      	cbz	r0, 800499e <UART_CheckIdleState+0x52>
 800497a:	6822      	ldr	r2, [r4, #0]
 800497c:	e852 3f00 	ldrex	r3, [r2]
 8004980:	f023 0380 	bic.w	r3, r3, #128	@ 0x80
 8004984:	e842 3100 	strex	r1, r3, [r2]
 8004988:	2900      	cmp	r1, #0
 800498a:	d1f6      	bne.n	800497a <UART_CheckIdleState+0x2e>
 800498c:	2320      	movs	r3, #32
 800498e:	f8c4 3088 	str.w	r3, [r4, #136]	@ 0x88
 8004992:	2003      	movs	r0, #3
 8004994:	2300      	movs	r3, #0
 8004996:	f884 3084 	strb.w	r3, [r4, #132]	@ 0x84
 800499a:	b002      	add	sp, #8
 800499c:	bd70      	pop	{r4, r5, r6, pc}
 800499e:	6823      	ldr	r3, [r4, #0]
 80049a0:	681b      	ldr	r3, [r3, #0]
 80049a2:	075b      	lsls	r3, r3, #29
 80049a4:	d524      	bpl.n	80049f0 <UART_CheckIdleState+0xa4>
 80049a6:	f06f 437e 	mvn.w	r3, #4261412864	@ 0xfe000000
 80049aa:	9300      	str	r3, [sp, #0]
 80049ac:	2200      	movs	r2, #0
 80049ae:	462b      	mov	r3, r5
 80049b0:	f44f 0180 	mov.w	r1, #4194304	@ 0x400000
 80049b4:	4620      	mov	r0, r4
 80049b6:	f7ff ff81 	bl	80048bc <UART_WaitOnFlagUntilTimeout>
 80049ba:	b1c8      	cbz	r0, 80049f0 <UART_CheckIdleState+0xa4>
 80049bc:	6822      	ldr	r2, [r4, #0]
 80049be:	e852 3f00 	ldrex	r3, [r2]
 80049c2:	f423 7390 	bic.w	r3, r3, #288	@ 0x120
 80049c6:	e842 3100 	strex	r1, r3, [r2]
 80049ca:	6822      	ldr	r2, [r4, #0]
 80049cc:	2900      	cmp	r1, #0
 80049ce:	d1f5      	bne.n	80049bc <UART_CheckIdleState+0x70>
 80049d0:	f102 0308 	add.w	r3, r2, #8
 80049d4:	e853 3f00 	ldrex	r3, [r3]
 80049d8:	f023 0301 	bic.w	r3, r3, #1
 80049dc:	f102 0008 	add.w	r0, r2, #8
 80049e0:	e840 3100 	strex	r1, r3, [r0]
 80049e4:	2900      	cmp	r1, #0
 80049e6:	d1f3      	bne.n	80049d0 <UART_CheckIdleState+0x84>
 80049e8:	2320      	movs	r3, #32
 80049ea:	f8c4 308c 	str.w	r3, [r4, #140]	@ 0x8c
 80049ee:	e7d0      	b.n	8004992 <UART_CheckIdleState+0x46>
 80049f0:	2320      	movs	r3, #32
 80049f2:	2000      	movs	r0, #0
 80049f4:	f8c4 3088 	str.w	r3, [r4, #136]	@ 0x88
 80049f8:	f8c4 308c 	str.w	r3, [r4, #140]	@ 0x8c
 80049fc:	66e0      	str	r0, [r4, #108]	@ 0x6c
 80049fe:	6720      	str	r0, [r4, #112]	@ 0x70
 8004a00:	e7c8      	b.n	8004994 <UART_CheckIdleState+0x48>

08004a02 <HAL_UART_Init>:
 8004a02:	b510      	push	{r4, lr}
 8004a04:	4604      	mov	r4, r0
 8004a06:	b350      	cbz	r0, 8004a5e <HAL_UART_Init+0x5c>
 8004a08:	f8d0 3088 	ldr.w	r3, [r0, #136]	@ 0x88
 8004a0c:	b91b      	cbnz	r3, 8004a16 <HAL_UART_Init+0x14>
 8004a0e:	f880 3084 	strb.w	r3, [r0, #132]	@ 0x84
 8004a12:	f7fc fc15 	bl	8001240 <HAL_UART_MspInit>
 8004a16:	6822      	ldr	r2, [r4, #0]
 8004a18:	2324      	movs	r3, #36	@ 0x24
 8004a1a:	f8c4 3088 	str.w	r3, [r4, #136]	@ 0x88
 8004a1e:	6813      	ldr	r3, [r2, #0]
 8004a20:	f023 0301 	bic.w	r3, r3, #1
 8004a24:	6013      	str	r3, [r2, #0]
 8004a26:	6aa3      	ldr	r3, [r4, #40]	@ 0x28
 8004a28:	b113      	cbz	r3, 8004a30 <HAL_UART_Init+0x2e>
 8004a2a:	4620      	mov	r0, r4
 8004a2c:	f7ff fef2 	bl	8004814 <UART_AdvFeatureConfig>
 8004a30:	4620      	mov	r0, r4
 8004a32:	f7ff fdc3 	bl	80045bc <UART_SetConfig>
 8004a36:	2801      	cmp	r0, #1
 8004a38:	d011      	beq.n	8004a5e <HAL_UART_Init+0x5c>
 8004a3a:	6823      	ldr	r3, [r4, #0]
 8004a3c:	685a      	ldr	r2, [r3, #4]
 8004a3e:	f422 4290 	bic.w	r2, r2, #18432	@ 0x4800
 8004a42:	605a      	str	r2, [r3, #4]
 8004a44:	689a      	ldr	r2, [r3, #8]
 8004a46:	f022 022a 	bic.w	r2, r2, #42	@ 0x2a
 8004a4a:	609a      	str	r2, [r3, #8]
 8004a4c:	681a      	ldr	r2, [r3, #0]
 8004a4e:	f042 0201 	orr.w	r2, r2, #1
 8004a52:	4620      	mov	r0, r4
 8004a54:	601a      	str	r2, [r3, #0]
 8004a56:	e8bd 4010 	ldmia.w	sp!, {r4, lr}
 8004a5a:	f7ff bf77 	b.w	800494c <UART_CheckIdleState>
 8004a5e:	2001      	movs	r0, #1
 8004a60:	bd10      	pop	{r4, pc}
	...

08004a64 <UARTEx_SetNbDataToProcess>:
 8004a64:	6e43      	ldr	r3, [r0, #100]	@ 0x64
 8004a66:	b530      	push	{r4, r5, lr}
 8004a68:	b92b      	cbnz	r3, 8004a76 <UARTEx_SetNbDataToProcess+0x12>
 8004a6a:	2301      	movs	r3, #1
 8004a6c:	f8a0 306a 	strh.w	r3, [r0, #106]	@ 0x6a
 8004a70:	f8a0 3068 	strh.w	r3, [r0, #104]	@ 0x68
 8004a74:	bd30      	pop	{r4, r5, pc}
 8004a76:	6803      	ldr	r3, [r0, #0]
 8004a78:	4d09      	ldr	r5, [pc, #36]	@ (8004aa0 <UARTEx_SetNbDataToProcess+0x3c>)
 8004a7a:	689a      	ldr	r2, [r3, #8]
 8004a7c:	6899      	ldr	r1, [r3, #8]
 8004a7e:	4c09      	ldr	r4, [pc, #36]	@ (8004aa4 <UARTEx_SetNbDataToProcess+0x40>)
 8004a80:	0f49      	lsrs	r1, r1, #29
 8004a82:	f3c2 6242 	ubfx	r2, r2, #25, #3
 8004a86:	5c6b      	ldrb	r3, [r5, r1]
 8004a88:	5c61      	ldrb	r1, [r4, r1]
 8004a8a:	00db      	lsls	r3, r3, #3
 8004a8c:	fbb3 f3f1 	udiv	r3, r3, r1
 8004a90:	f8a0 306a 	strh.w	r3, [r0, #106]	@ 0x6a
 8004a94:	5cab      	ldrb	r3, [r5, r2]
 8004a96:	5ca2      	ldrb	r2, [r4, r2]
 8004a98:	00db      	lsls	r3, r3, #3
 8004a9a:	fbb3 f3f2 	udiv	r3, r3, r2
 8004a9e:	e7e7      	b.n	8004a70 <UARTEx_SetNbDataToProcess+0xc>
 8004aa0:	08004c20 	.word	0x08004c20
 8004aa4:	08004c18 	.word	0x08004c18

08004aa8 <HAL_UARTEx_DisableFifoMode>:
 8004aa8:	f890 3084 	ldrb.w	r3, [r0, #132]	@ 0x84
 8004aac:	2b01      	cmp	r3, #1
 8004aae:	d014      	beq.n	8004ada <HAL_UARTEx_DisableFifoMode+0x32>
 8004ab0:	6802      	ldr	r2, [r0, #0]
 8004ab2:	2324      	movs	r3, #36	@ 0x24
 8004ab4:	f8c0 3088 	str.w	r3, [r0, #136]	@ 0x88
 8004ab8:	6811      	ldr	r1, [r2, #0]
 8004aba:	6813      	ldr	r3, [r2, #0]
 8004abc:	f023 0301 	bic.w	r3, r3, #1
 8004ac0:	6013      	str	r3, [r2, #0]
 8004ac2:	f021 5100 	bic.w	r1, r1, #536870912	@ 0x20000000
 8004ac6:	2300      	movs	r3, #0
 8004ac8:	6643      	str	r3, [r0, #100]	@ 0x64
 8004aca:	6011      	str	r1, [r2, #0]
 8004acc:	2220      	movs	r2, #32
 8004ace:	f8c0 2088 	str.w	r2, [r0, #136]	@ 0x88
 8004ad2:	f880 3084 	strb.w	r3, [r0, #132]	@ 0x84
 8004ad6:	4618      	mov	r0, r3
 8004ad8:	4770      	bx	lr
 8004ada:	2002      	movs	r0, #2
 8004adc:	4770      	bx	lr

08004ade <HAL_UARTEx_SetTxFifoThreshold>:
 8004ade:	b570      	push	{r4, r5, r6, lr}
 8004ae0:	f890 3084 	ldrb.w	r3, [r0, #132]	@ 0x84
 8004ae4:	2b01      	cmp	r3, #1
 8004ae6:	4604      	mov	r4, r0
 8004ae8:	d017      	beq.n	8004b1a <HAL_UARTEx_SetTxFifoThreshold+0x3c>
 8004aea:	6805      	ldr	r5, [r0, #0]
 8004aec:	2324      	movs	r3, #36	@ 0x24
 8004aee:	f8c0 3088 	str.w	r3, [r0, #136]	@ 0x88
 8004af2:	682e      	ldr	r6, [r5, #0]
 8004af4:	682b      	ldr	r3, [r5, #0]
 8004af6:	f023 0301 	bic.w	r3, r3, #1
 8004afa:	602b      	str	r3, [r5, #0]
 8004afc:	68ab      	ldr	r3, [r5, #8]
 8004afe:	f023 4360 	bic.w	r3, r3, #3758096384	@ 0xe0000000
 8004b02:	4319      	orrs	r1, r3
 8004b04:	60a9      	str	r1, [r5, #8]
 8004b06:	f7ff ffad 	bl	8004a64 <UARTEx_SetNbDataToProcess>
 8004b0a:	2320      	movs	r3, #32
 8004b0c:	602e      	str	r6, [r5, #0]
 8004b0e:	f8c0 3088 	str.w	r3, [r0, #136]	@ 0x88
 8004b12:	2000      	movs	r0, #0
 8004b14:	f884 0084 	strb.w	r0, [r4, #132]	@ 0x84
 8004b18:	bd70      	pop	{r4, r5, r6, pc}
 8004b1a:	2002      	movs	r0, #2
 8004b1c:	e7fc      	b.n	8004b18 <HAL_UARTEx_SetTxFifoThreshold+0x3a>

08004b1e <HAL_UARTEx_SetRxFifoThreshold>:
 8004b1e:	b570      	push	{r4, r5, r6, lr}
 8004b20:	f890 3084 	ldrb.w	r3, [r0, #132]	@ 0x84
 8004b24:	2b01      	cmp	r3, #1
 8004b26:	4604      	mov	r4, r0
 8004b28:	d017      	beq.n	8004b5a <HAL_UARTEx_SetRxFifoThreshold+0x3c>
 8004b2a:	6805      	ldr	r5, [r0, #0]
 8004b2c:	2324      	movs	r3, #36	@ 0x24
 8004b2e:	f8c0 3088 	str.w	r3, [r0, #136]	@ 0x88
 8004b32:	682e      	ldr	r6, [r5, #0]
 8004b34:	682b      	ldr	r3, [r5, #0]
 8004b36:	f023 0301 	bic.w	r3, r3, #1
 8004b3a:	602b      	str	r3, [r5, #0]
 8004b3c:	68ab      	ldr	r3, [r5, #8]
 8004b3e:	f023 6360 	bic.w	r3, r3, #234881024	@ 0xe000000
 8004b42:	4319      	orrs	r1, r3
 8004b44:	60a9      	str	r1, [r5, #8]
 8004b46:	f7ff ff8d 	bl	8004a64 <UARTEx_SetNbDataToProcess>
 8004b4a:	2320      	movs	r3, #32
 8004b4c:	602e      	str	r6, [r5, #0]
 8004b4e:	f8c0 3088 	str.w	r3, [r0, #136]	@ 0x88
 8004b52:	2000      	movs	r0, #0
 8004b54:	f884 0084 	strb.w	r0, [r4, #132]	@ 0x84
 8004b58:	bd70      	pop	{r4, r5, r6, pc}
 8004b5a:	2002      	movs	r0, #2
 8004b5c:	e7fc      	b.n	8004b58 <HAL_UARTEx_SetRxFifoThreshold+0x3a>

08004b5e <memset>:
 8004b5e:	4402      	add	r2, r0
 8004b60:	4603      	mov	r3, r0
 8004b62:	4293      	cmp	r3, r2
 8004b64:	d100      	bne.n	8004b68 <memset+0xa>
 8004b66:	4770      	bx	lr
 8004b68:	f803 1b01 	strb.w	r1, [r3], #1
 8004b6c:	e7f9      	b.n	8004b62 <memset+0x4>
	...

08004b70 <__libc_init_array>:
 8004b70:	b570      	push	{r4, r5, r6, lr}
 8004b72:	4d0d      	ldr	r5, [pc, #52]	@ (8004ba8 <__libc_init_array+0x38>)
 8004b74:	4c0d      	ldr	r4, [pc, #52]	@ (8004bac <__libc_init_array+0x3c>)
 8004b76:	1b64      	subs	r4, r4, r5
 8004b78:	10a4      	asrs	r4, r4, #2
 8004b7a:	2600      	movs	r6, #0
 8004b7c:	42a6      	cmp	r6, r4
 8004b7e:	d109      	bne.n	8004b94 <__libc_init_array+0x24>
 8004b80:	4d0b      	ldr	r5, [pc, #44]	@ (8004bb0 <__libc_init_array+0x40>)
 8004b82:	4c0c      	ldr	r4, [pc, #48]	@ (8004bb4 <__libc_init_array+0x44>)
 8004b84:	f000 f818 	bl	8004bb8 <_init>
 8004b88:	1b64      	subs	r4, r4, r5
 8004b8a:	10a4      	asrs	r4, r4, #2
 8004b8c:	2600      	movs	r6, #0
 8004b8e:	42a6      	cmp	r6, r4
 8004b90:	d105      	bne.n	8004b9e <__libc_init_array+0x2e>
 8004b92:	bd70      	pop	{r4, r5, r6, pc}
 8004b94:	f855 3b04 	ldr.w	r3, [r5], #4
 8004b98:	4798      	blx	r3
 8004b9a:	3601      	adds	r6, #1
 8004b9c:	e7ee      	b.n	8004b7c <__libc_init_array+0xc>
 8004b9e:	f855 3b04 	ldr.w	r3, [r5], #4
 8004ba2:	4798      	blx	r3
 8004ba4:	3601      	adds	r6, #1
 8004ba6:	e7f2      	b.n	8004b8e <__libc_init_array+0x1e>
 8004ba8:	08004c30 	.word	0x08004c30
 8004bac:	08004c30 	.word	0x08004c30
 8004bb0:	08004c30 	.word	0x08004c30
 8004bb4:	08004c34 	.word	0x08004c34

08004bb8 <_init>:
 8004bb8:	b5f8      	push	{r3, r4, r5, r6, r7, lr}
 8004bba:	bf00      	nop
 8004bbc:	bcf8      	pop	{r3, r4, r5, r6, r7}
 8004bbe:	bc08      	pop	{r3}
 8004bc0:	469e      	mov	lr, r3
 8004bc2:	4770      	bx	lr

08004bc4 <_fini>:
 8004bc4:	b5f8      	push	{r3, r4, r5, r6, r7, lr}
 8004bc6:	bf00      	nop
 8004bc8:	bcf8      	pop	{r3, r4, r5, r6, r7}
 8004bca:	bc08      	pop	{r3}
 8004bcc:	469e      	mov	lr, r3
 8004bce:	4770      	bx	lr
